ARM GAS  /tmp/cca8Fq5p.s 			page 1


   1              		.cpu cortex-m4
   2              		.eabi_attribute 27, 1
   3              		.eabi_attribute 28, 1
   4              		.eabi_attribute 20, 1
   5              		.eabi_attribute 21, 1
   6              		.eabi_attribute 23, 3
   7              		.eabi_attribute 24, 1
   8              		.eabi_attribute 25, 1
   9              		.eabi_attribute 26, 1
  10              		.eabi_attribute 30, 1
  11              		.eabi_attribute 34, 1
  12              		.eabi_attribute 18, 4
  13              		.file	"lcd.c"
  14              		.text
  15              	.Ltext0:
  16              		.cfi_sections	.debug_frame
  17              		.section	.text.LCD_write_data,"ax",%progbits
  18              		.align	1
  19              		.global	LCD_write_data
  20              		.syntax unified
  21              		.thumb
  22              		.thumb_func
  23              		.fpu fpv4-sp-d16
  25              	LCD_write_data:
  26              	.LFB1425:
  27              		.file 1 "Src/lcd.c"
   1:Src/lcd.c     **** /*
   2:Src/lcd.c     ****  * lcd.c
   3:Src/lcd.c     ****  *
   4:Src/lcd.c     ****  *  Created on: Oct 15, 2017
   5:Src/lcd.c     ****  *      Author: David Knight
   6:Src/lcd.c     ****  */
   7:Src/lcd.c     **** 
   8:Src/lcd.c     **** #include "lcd.h"
   9:Src/lcd.c     **** 
  10:Src/lcd.c     **** void init_LCD(){
  11:Src/lcd.c     **** 	LL_GPIO_ResetOutputPin(LCD_RS_port, LCD_RS_pin);
  12:Src/lcd.c     **** 	LL_GPIO_ResetOutputPin(LCD_RW_port, LCD_RW_pin);
  13:Src/lcd.c     **** 	LL_GPIO_ResetOutputPin(LCD_E_port, LCD_E_pin);
  14:Src/lcd.c     **** 	LL_mDelay(100);
  15:Src/lcd.c     **** 	LCD_write_cmd(0x30);//wake up
  16:Src/lcd.c     **** 	LL_mDelay(30);
  17:Src/lcd.c     **** 	LCD_write_cmd(0x30);
  18:Src/lcd.c     **** 	LL_mDelay(10);
  19:Src/lcd.c     **** 	LCD_write_cmd(0x30);
  20:Src/lcd.c     **** 	LL_mDelay(10);
  21:Src/lcd.c     **** 	LCD_write_cmd(0x38);//8-bit/2-line
  22:Src/lcd.c     **** 	LCD_write_cmd(0x10);//set cursor
  23:Src/lcd.c     **** 	LCD_write_cmd(0x0C);//display on, cursor on
  24:Src/lcd.c     **** 	LCD_write_cmd(0x06);//entry mode
  25:Src/lcd.c     **** 
  26:Src/lcd.c     **** 	LCD_write_cmd(0x01);//clear display
  27:Src/lcd.c     **** 	LCD_write_cmd(0x02);//return cursor to home
  28:Src/lcd.c     **** 
  29:Src/lcd.c     **** 	return;
  30:Src/lcd.c     **** }
  31:Src/lcd.c     **** 
ARM GAS  /tmp/cca8Fq5p.s 			page 2


  32:Src/lcd.c     **** /*send data to LCD screen*/
  33:Src/lcd.c     **** void LCD_write_data(int buffer){
  28              		.loc 1 33 0
  29              		.cfi_startproc
  30              		@ args = 0, pretend = 0, frame = 0
  31              		@ frame_needed = 0, uses_anonymous_args = 0
  32              	.LVL0:
  33 0000 2DE9F041 		push	{r4, r5, r6, r7, r8, lr}
  34              	.LCFI0:
  35              		.cfi_def_cfa_offset 24
  36              		.cfi_offset 4, -24
  37              		.cfi_offset 5, -20
  38              		.cfi_offset 6, -16
  39              		.cfi_offset 7, -12
  40              		.cfi_offset 8, -8
  41              		.cfi_offset 14, -4
  42              	.LVL1:
  43              	.LBB44:
  44              	.LBB45:
  45              		.file 2 "Drivers/STM32L4xx_HAL_Driver/Inc/stm32l4xx_ll_gpio.h"
   1:Drivers/STM32L4xx_HAL_Driver/Inc/stm32l4xx_ll_gpio.h **** /**
   2:Drivers/STM32L4xx_HAL_Driver/Inc/stm32l4xx_ll_gpio.h ****   ******************************************************************************
   3:Drivers/STM32L4xx_HAL_Driver/Inc/stm32l4xx_ll_gpio.h ****   * @file    stm32l4xx_ll_gpio.h
   4:Drivers/STM32L4xx_HAL_Driver/Inc/stm32l4xx_ll_gpio.h ****   * @author  MCD Application Team
   5:Drivers/STM32L4xx_HAL_Driver/Inc/stm32l4xx_ll_gpio.h ****   * @brief   Header file of GPIO LL module.
   6:Drivers/STM32L4xx_HAL_Driver/Inc/stm32l4xx_ll_gpio.h ****   ******************************************************************************
   7:Drivers/STM32L4xx_HAL_Driver/Inc/stm32l4xx_ll_gpio.h ****   * @attention
   8:Drivers/STM32L4xx_HAL_Driver/Inc/stm32l4xx_ll_gpio.h ****   *
   9:Drivers/STM32L4xx_HAL_Driver/Inc/stm32l4xx_ll_gpio.h ****   * <h2><center>&copy; COPYRIGHT(c) 2017 STMicroelectronics</center></h2>
  10:Drivers/STM32L4xx_HAL_Driver/Inc/stm32l4xx_ll_gpio.h ****   *
  11:Drivers/STM32L4xx_HAL_Driver/Inc/stm32l4xx_ll_gpio.h ****   * Redistribution and use in source and binary forms, with or without modification,
  12:Drivers/STM32L4xx_HAL_Driver/Inc/stm32l4xx_ll_gpio.h ****   * are permitted provided that the following conditions are met:
  13:Drivers/STM32L4xx_HAL_Driver/Inc/stm32l4xx_ll_gpio.h ****   *   1. Redistributions of source code must retain the above copyright notice,
  14:Drivers/STM32L4xx_HAL_Driver/Inc/stm32l4xx_ll_gpio.h ****   *      this list of conditions and the following disclaimer.
  15:Drivers/STM32L4xx_HAL_Driver/Inc/stm32l4xx_ll_gpio.h ****   *   2. Redistributions in binary form must reproduce the above copyright notice,
  16:Drivers/STM32L4xx_HAL_Driver/Inc/stm32l4xx_ll_gpio.h ****   *      this list of conditions and the following disclaimer in the documentation
  17:Drivers/STM32L4xx_HAL_Driver/Inc/stm32l4xx_ll_gpio.h ****   *      and/or other materials provided with the distribution.
  18:Drivers/STM32L4xx_HAL_Driver/Inc/stm32l4xx_ll_gpio.h ****   *   3. Neither the name of STMicroelectronics nor the names of its contributors
  19:Drivers/STM32L4xx_HAL_Driver/Inc/stm32l4xx_ll_gpio.h ****   *      may be used to endorse or promote products derived from this software
  20:Drivers/STM32L4xx_HAL_Driver/Inc/stm32l4xx_ll_gpio.h ****   *      without specific prior written permission.
  21:Drivers/STM32L4xx_HAL_Driver/Inc/stm32l4xx_ll_gpio.h ****   *
  22:Drivers/STM32L4xx_HAL_Driver/Inc/stm32l4xx_ll_gpio.h ****   * THIS SOFTWARE IS PROVIDED BY THE COPYRIGHT HOLDERS AND CONTRIBUTORS "AS IS"
  23:Drivers/STM32L4xx_HAL_Driver/Inc/stm32l4xx_ll_gpio.h ****   * AND ANY EXPRESS OR IMPLIED WARRANTIES, INCLUDING, BUT NOT LIMITED TO, THE
  24:Drivers/STM32L4xx_HAL_Driver/Inc/stm32l4xx_ll_gpio.h ****   * IMPLIED WARRANTIES OF MERCHANTABILITY AND FITNESS FOR A PARTICULAR PURPOSE ARE
  25:Drivers/STM32L4xx_HAL_Driver/Inc/stm32l4xx_ll_gpio.h ****   * DISCLAIMED. IN NO EVENT SHALL THE COPYRIGHT HOLDER OR CONTRIBUTORS BE LIABLE
  26:Drivers/STM32L4xx_HAL_Driver/Inc/stm32l4xx_ll_gpio.h ****   * FOR ANY DIRECT, INDIRECT, INCIDENTAL, SPECIAL, EXEMPLARY, OR CONSEQUENTIAL
  27:Drivers/STM32L4xx_HAL_Driver/Inc/stm32l4xx_ll_gpio.h ****   * DAMAGES (INCLUDING, BUT NOT LIMITED TO, PROCUREMENT OF SUBSTITUTE GOODS OR
  28:Drivers/STM32L4xx_HAL_Driver/Inc/stm32l4xx_ll_gpio.h ****   * SERVICES; LOSS OF USE, DATA, OR PROFITS; OR BUSINESS INTERRUPTION) HOWEVER
  29:Drivers/STM32L4xx_HAL_Driver/Inc/stm32l4xx_ll_gpio.h ****   * CAUSED AND ON ANY THEORY OF LIABILITY, WHETHER IN CONTRACT, STRICT LIABILITY,
  30:Drivers/STM32L4xx_HAL_Driver/Inc/stm32l4xx_ll_gpio.h ****   * OR TORT (INCLUDING NEGLIGENCE OR OTHERWISE) ARISING IN ANY WAY OUT OF THE USE
  31:Drivers/STM32L4xx_HAL_Driver/Inc/stm32l4xx_ll_gpio.h ****   * OF THIS SOFTWARE, EVEN IF ADVISED OF THE POSSIBILITY OF SUCH DAMAGE.
  32:Drivers/STM32L4xx_HAL_Driver/Inc/stm32l4xx_ll_gpio.h ****   *
  33:Drivers/STM32L4xx_HAL_Driver/Inc/stm32l4xx_ll_gpio.h ****   ******************************************************************************
  34:Drivers/STM32L4xx_HAL_Driver/Inc/stm32l4xx_ll_gpio.h ****   */
  35:Drivers/STM32L4xx_HAL_Driver/Inc/stm32l4xx_ll_gpio.h **** 
  36:Drivers/STM32L4xx_HAL_Driver/Inc/stm32l4xx_ll_gpio.h **** /* Define to prevent recursive inclusion -------------------------------------*/
  37:Drivers/STM32L4xx_HAL_Driver/Inc/stm32l4xx_ll_gpio.h **** #ifndef __STM32L4xx_LL_GPIO_H
ARM GAS  /tmp/cca8Fq5p.s 			page 3


  38:Drivers/STM32L4xx_HAL_Driver/Inc/stm32l4xx_ll_gpio.h **** #define __STM32L4xx_LL_GPIO_H
  39:Drivers/STM32L4xx_HAL_Driver/Inc/stm32l4xx_ll_gpio.h **** 
  40:Drivers/STM32L4xx_HAL_Driver/Inc/stm32l4xx_ll_gpio.h **** #ifdef __cplusplus
  41:Drivers/STM32L4xx_HAL_Driver/Inc/stm32l4xx_ll_gpio.h **** extern "C" {
  42:Drivers/STM32L4xx_HAL_Driver/Inc/stm32l4xx_ll_gpio.h **** #endif
  43:Drivers/STM32L4xx_HAL_Driver/Inc/stm32l4xx_ll_gpio.h **** 
  44:Drivers/STM32L4xx_HAL_Driver/Inc/stm32l4xx_ll_gpio.h **** /* Includes ------------------------------------------------------------------*/
  45:Drivers/STM32L4xx_HAL_Driver/Inc/stm32l4xx_ll_gpio.h **** #include "stm32l4xx.h"
  46:Drivers/STM32L4xx_HAL_Driver/Inc/stm32l4xx_ll_gpio.h **** 
  47:Drivers/STM32L4xx_HAL_Driver/Inc/stm32l4xx_ll_gpio.h **** /** @addtogroup STM32L4xx_LL_Driver
  48:Drivers/STM32L4xx_HAL_Driver/Inc/stm32l4xx_ll_gpio.h ****   * @{
  49:Drivers/STM32L4xx_HAL_Driver/Inc/stm32l4xx_ll_gpio.h ****   */
  50:Drivers/STM32L4xx_HAL_Driver/Inc/stm32l4xx_ll_gpio.h **** 
  51:Drivers/STM32L4xx_HAL_Driver/Inc/stm32l4xx_ll_gpio.h **** #if defined (GPIOA) || defined (GPIOB) || defined (GPIOC) || defined (GPIOD) || defined (GPIOE) || 
  52:Drivers/STM32L4xx_HAL_Driver/Inc/stm32l4xx_ll_gpio.h **** 
  53:Drivers/STM32L4xx_HAL_Driver/Inc/stm32l4xx_ll_gpio.h **** /** @defgroup GPIO_LL GPIO
  54:Drivers/STM32L4xx_HAL_Driver/Inc/stm32l4xx_ll_gpio.h ****   * @{
  55:Drivers/STM32L4xx_HAL_Driver/Inc/stm32l4xx_ll_gpio.h ****   */
  56:Drivers/STM32L4xx_HAL_Driver/Inc/stm32l4xx_ll_gpio.h **** 
  57:Drivers/STM32L4xx_HAL_Driver/Inc/stm32l4xx_ll_gpio.h **** /* Private types -------------------------------------------------------------*/
  58:Drivers/STM32L4xx_HAL_Driver/Inc/stm32l4xx_ll_gpio.h **** /* Private variables ---------------------------------------------------------*/
  59:Drivers/STM32L4xx_HAL_Driver/Inc/stm32l4xx_ll_gpio.h **** /* Private constants ---------------------------------------------------------*/
  60:Drivers/STM32L4xx_HAL_Driver/Inc/stm32l4xx_ll_gpio.h **** /* Private macros ------------------------------------------------------------*/
  61:Drivers/STM32L4xx_HAL_Driver/Inc/stm32l4xx_ll_gpio.h **** #if defined(USE_FULL_LL_DRIVER)
  62:Drivers/STM32L4xx_HAL_Driver/Inc/stm32l4xx_ll_gpio.h **** /** @defgroup GPIO_LL_Private_Macros GPIO Private Macros
  63:Drivers/STM32L4xx_HAL_Driver/Inc/stm32l4xx_ll_gpio.h ****   * @{
  64:Drivers/STM32L4xx_HAL_Driver/Inc/stm32l4xx_ll_gpio.h ****   */
  65:Drivers/STM32L4xx_HAL_Driver/Inc/stm32l4xx_ll_gpio.h **** 
  66:Drivers/STM32L4xx_HAL_Driver/Inc/stm32l4xx_ll_gpio.h **** /**
  67:Drivers/STM32L4xx_HAL_Driver/Inc/stm32l4xx_ll_gpio.h ****   * @}
  68:Drivers/STM32L4xx_HAL_Driver/Inc/stm32l4xx_ll_gpio.h ****   */
  69:Drivers/STM32L4xx_HAL_Driver/Inc/stm32l4xx_ll_gpio.h **** #endif /*USE_FULL_LL_DRIVER*/
  70:Drivers/STM32L4xx_HAL_Driver/Inc/stm32l4xx_ll_gpio.h **** 
  71:Drivers/STM32L4xx_HAL_Driver/Inc/stm32l4xx_ll_gpio.h **** /* Exported types ------------------------------------------------------------*/
  72:Drivers/STM32L4xx_HAL_Driver/Inc/stm32l4xx_ll_gpio.h **** #if defined(USE_FULL_LL_DRIVER)
  73:Drivers/STM32L4xx_HAL_Driver/Inc/stm32l4xx_ll_gpio.h **** /** @defgroup GPIO_LL_ES_INIT GPIO Exported Init structures
  74:Drivers/STM32L4xx_HAL_Driver/Inc/stm32l4xx_ll_gpio.h ****   * @{
  75:Drivers/STM32L4xx_HAL_Driver/Inc/stm32l4xx_ll_gpio.h ****   */
  76:Drivers/STM32L4xx_HAL_Driver/Inc/stm32l4xx_ll_gpio.h **** 
  77:Drivers/STM32L4xx_HAL_Driver/Inc/stm32l4xx_ll_gpio.h **** /**
  78:Drivers/STM32L4xx_HAL_Driver/Inc/stm32l4xx_ll_gpio.h ****   * @brief LL GPIO Init Structure definition
  79:Drivers/STM32L4xx_HAL_Driver/Inc/stm32l4xx_ll_gpio.h ****   */
  80:Drivers/STM32L4xx_HAL_Driver/Inc/stm32l4xx_ll_gpio.h **** typedef struct
  81:Drivers/STM32L4xx_HAL_Driver/Inc/stm32l4xx_ll_gpio.h **** {
  82:Drivers/STM32L4xx_HAL_Driver/Inc/stm32l4xx_ll_gpio.h ****   uint32_t Pin;          /*!< Specifies the GPIO pins to be configured.
  83:Drivers/STM32L4xx_HAL_Driver/Inc/stm32l4xx_ll_gpio.h ****                               This parameter can be any value of @ref GPIO_LL_EC_PIN */
  84:Drivers/STM32L4xx_HAL_Driver/Inc/stm32l4xx_ll_gpio.h **** 
  85:Drivers/STM32L4xx_HAL_Driver/Inc/stm32l4xx_ll_gpio.h ****   uint32_t Mode;         /*!< Specifies the operating mode for the selected pins.
  86:Drivers/STM32L4xx_HAL_Driver/Inc/stm32l4xx_ll_gpio.h ****                               This parameter can be a value of @ref GPIO_LL_EC_MODE.
  87:Drivers/STM32L4xx_HAL_Driver/Inc/stm32l4xx_ll_gpio.h **** 
  88:Drivers/STM32L4xx_HAL_Driver/Inc/stm32l4xx_ll_gpio.h ****                               GPIO HW configuration can be modified afterwards using unitary functi
  89:Drivers/STM32L4xx_HAL_Driver/Inc/stm32l4xx_ll_gpio.h **** 
  90:Drivers/STM32L4xx_HAL_Driver/Inc/stm32l4xx_ll_gpio.h ****   uint32_t Speed;        /*!< Specifies the speed for the selected pins.
  91:Drivers/STM32L4xx_HAL_Driver/Inc/stm32l4xx_ll_gpio.h ****                               This parameter can be a value of @ref GPIO_LL_EC_SPEED.
  92:Drivers/STM32L4xx_HAL_Driver/Inc/stm32l4xx_ll_gpio.h **** 
  93:Drivers/STM32L4xx_HAL_Driver/Inc/stm32l4xx_ll_gpio.h ****                               GPIO HW configuration can be modified afterwards using unitary functi
  94:Drivers/STM32L4xx_HAL_Driver/Inc/stm32l4xx_ll_gpio.h **** 
ARM GAS  /tmp/cca8Fq5p.s 			page 4


  95:Drivers/STM32L4xx_HAL_Driver/Inc/stm32l4xx_ll_gpio.h ****   uint32_t OutputType;   /*!< Specifies the operating output type for the selected pins.
  96:Drivers/STM32L4xx_HAL_Driver/Inc/stm32l4xx_ll_gpio.h ****                               This parameter can be a value of @ref GPIO_LL_EC_OUTPUT.
  97:Drivers/STM32L4xx_HAL_Driver/Inc/stm32l4xx_ll_gpio.h **** 
  98:Drivers/STM32L4xx_HAL_Driver/Inc/stm32l4xx_ll_gpio.h ****                               GPIO HW configuration can be modified afterwards using unitary functi
  99:Drivers/STM32L4xx_HAL_Driver/Inc/stm32l4xx_ll_gpio.h **** 
 100:Drivers/STM32L4xx_HAL_Driver/Inc/stm32l4xx_ll_gpio.h ****   uint32_t Pull;         /*!< Specifies the operating Pull-up/Pull down for the selected pins.
 101:Drivers/STM32L4xx_HAL_Driver/Inc/stm32l4xx_ll_gpio.h ****                               This parameter can be a value of @ref GPIO_LL_EC_PULL.
 102:Drivers/STM32L4xx_HAL_Driver/Inc/stm32l4xx_ll_gpio.h **** 
 103:Drivers/STM32L4xx_HAL_Driver/Inc/stm32l4xx_ll_gpio.h ****                               GPIO HW configuration can be modified afterwards using unitary functi
 104:Drivers/STM32L4xx_HAL_Driver/Inc/stm32l4xx_ll_gpio.h **** 
 105:Drivers/STM32L4xx_HAL_Driver/Inc/stm32l4xx_ll_gpio.h ****   uint32_t Alternate;    /*!< Specifies the Peripheral to be connected to the selected pins.
 106:Drivers/STM32L4xx_HAL_Driver/Inc/stm32l4xx_ll_gpio.h ****                               This parameter can be a value of @ref GPIO_LL_EC_AF.
 107:Drivers/STM32L4xx_HAL_Driver/Inc/stm32l4xx_ll_gpio.h **** 
 108:Drivers/STM32L4xx_HAL_Driver/Inc/stm32l4xx_ll_gpio.h ****                               GPIO HW configuration can be modified afterwards using unitary functi
 109:Drivers/STM32L4xx_HAL_Driver/Inc/stm32l4xx_ll_gpio.h **** } LL_GPIO_InitTypeDef;
 110:Drivers/STM32L4xx_HAL_Driver/Inc/stm32l4xx_ll_gpio.h **** 
 111:Drivers/STM32L4xx_HAL_Driver/Inc/stm32l4xx_ll_gpio.h **** /**
 112:Drivers/STM32L4xx_HAL_Driver/Inc/stm32l4xx_ll_gpio.h ****   * @}
 113:Drivers/STM32L4xx_HAL_Driver/Inc/stm32l4xx_ll_gpio.h ****   */
 114:Drivers/STM32L4xx_HAL_Driver/Inc/stm32l4xx_ll_gpio.h **** #endif /* USE_FULL_LL_DRIVER */
 115:Drivers/STM32L4xx_HAL_Driver/Inc/stm32l4xx_ll_gpio.h **** 
 116:Drivers/STM32L4xx_HAL_Driver/Inc/stm32l4xx_ll_gpio.h **** /* Exported constants --------------------------------------------------------*/
 117:Drivers/STM32L4xx_HAL_Driver/Inc/stm32l4xx_ll_gpio.h **** /** @defgroup GPIO_LL_Exported_Constants GPIO Exported Constants
 118:Drivers/STM32L4xx_HAL_Driver/Inc/stm32l4xx_ll_gpio.h ****   * @{
 119:Drivers/STM32L4xx_HAL_Driver/Inc/stm32l4xx_ll_gpio.h ****   */
 120:Drivers/STM32L4xx_HAL_Driver/Inc/stm32l4xx_ll_gpio.h **** 
 121:Drivers/STM32L4xx_HAL_Driver/Inc/stm32l4xx_ll_gpio.h **** /** @defgroup GPIO_LL_EC_PIN PIN
 122:Drivers/STM32L4xx_HAL_Driver/Inc/stm32l4xx_ll_gpio.h ****   * @{
 123:Drivers/STM32L4xx_HAL_Driver/Inc/stm32l4xx_ll_gpio.h ****   */
 124:Drivers/STM32L4xx_HAL_Driver/Inc/stm32l4xx_ll_gpio.h **** #define LL_GPIO_PIN_0                      GPIO_BSRR_BS0 /*!< Select pin 0 */
 125:Drivers/STM32L4xx_HAL_Driver/Inc/stm32l4xx_ll_gpio.h **** #define LL_GPIO_PIN_1                      GPIO_BSRR_BS1 /*!< Select pin 1 */
 126:Drivers/STM32L4xx_HAL_Driver/Inc/stm32l4xx_ll_gpio.h **** #define LL_GPIO_PIN_2                      GPIO_BSRR_BS2 /*!< Select pin 2 */
 127:Drivers/STM32L4xx_HAL_Driver/Inc/stm32l4xx_ll_gpio.h **** #define LL_GPIO_PIN_3                      GPIO_BSRR_BS3 /*!< Select pin 3 */
 128:Drivers/STM32L4xx_HAL_Driver/Inc/stm32l4xx_ll_gpio.h **** #define LL_GPIO_PIN_4                      GPIO_BSRR_BS4 /*!< Select pin 4 */
 129:Drivers/STM32L4xx_HAL_Driver/Inc/stm32l4xx_ll_gpio.h **** #define LL_GPIO_PIN_5                      GPIO_BSRR_BS5 /*!< Select pin 5 */
 130:Drivers/STM32L4xx_HAL_Driver/Inc/stm32l4xx_ll_gpio.h **** #define LL_GPIO_PIN_6                      GPIO_BSRR_BS6 /*!< Select pin 6 */
 131:Drivers/STM32L4xx_HAL_Driver/Inc/stm32l4xx_ll_gpio.h **** #define LL_GPIO_PIN_7                      GPIO_BSRR_BS7 /*!< Select pin 7 */
 132:Drivers/STM32L4xx_HAL_Driver/Inc/stm32l4xx_ll_gpio.h **** #define LL_GPIO_PIN_8                      GPIO_BSRR_BS8 /*!< Select pin 8 */
 133:Drivers/STM32L4xx_HAL_Driver/Inc/stm32l4xx_ll_gpio.h **** #define LL_GPIO_PIN_9                      GPIO_BSRR_BS9 /*!< Select pin 9 */
 134:Drivers/STM32L4xx_HAL_Driver/Inc/stm32l4xx_ll_gpio.h **** #define LL_GPIO_PIN_10                     GPIO_BSRR_BS10 /*!< Select pin 10 */
 135:Drivers/STM32L4xx_HAL_Driver/Inc/stm32l4xx_ll_gpio.h **** #define LL_GPIO_PIN_11                     GPIO_BSRR_BS11 /*!< Select pin 11 */
 136:Drivers/STM32L4xx_HAL_Driver/Inc/stm32l4xx_ll_gpio.h **** #define LL_GPIO_PIN_12                     GPIO_BSRR_BS12 /*!< Select pin 12 */
 137:Drivers/STM32L4xx_HAL_Driver/Inc/stm32l4xx_ll_gpio.h **** #define LL_GPIO_PIN_13                     GPIO_BSRR_BS13 /*!< Select pin 13 */
 138:Drivers/STM32L4xx_HAL_Driver/Inc/stm32l4xx_ll_gpio.h **** #define LL_GPIO_PIN_14                     GPIO_BSRR_BS14 /*!< Select pin 14 */
 139:Drivers/STM32L4xx_HAL_Driver/Inc/stm32l4xx_ll_gpio.h **** #define LL_GPIO_PIN_15                     GPIO_BSRR_BS15 /*!< Select pin 15 */
 140:Drivers/STM32L4xx_HAL_Driver/Inc/stm32l4xx_ll_gpio.h **** #define LL_GPIO_PIN_ALL                    (GPIO_BSRR_BS0 | GPIO_BSRR_BS1  | GPIO_BSRR_BS2  | \
 141:Drivers/STM32L4xx_HAL_Driver/Inc/stm32l4xx_ll_gpio.h ****                                            GPIO_BSRR_BS3  | GPIO_BSRR_BS4  | GPIO_BSRR_BS5  | \
 142:Drivers/STM32L4xx_HAL_Driver/Inc/stm32l4xx_ll_gpio.h ****                                            GPIO_BSRR_BS6  | GPIO_BSRR_BS7  | GPIO_BSRR_BS8  | \
 143:Drivers/STM32L4xx_HAL_Driver/Inc/stm32l4xx_ll_gpio.h ****                                            GPIO_BSRR_BS9  | GPIO_BSRR_BS10 | GPIO_BSRR_BS11 | \
 144:Drivers/STM32L4xx_HAL_Driver/Inc/stm32l4xx_ll_gpio.h ****                                            GPIO_BSRR_BS12 | GPIO_BSRR_BS13 | GPIO_BSRR_BS14 | \
 145:Drivers/STM32L4xx_HAL_Driver/Inc/stm32l4xx_ll_gpio.h ****                                            GPIO_BSRR_BS15) /*!< Select all pins */
 146:Drivers/STM32L4xx_HAL_Driver/Inc/stm32l4xx_ll_gpio.h **** /**
 147:Drivers/STM32L4xx_HAL_Driver/Inc/stm32l4xx_ll_gpio.h ****   * @}
 148:Drivers/STM32L4xx_HAL_Driver/Inc/stm32l4xx_ll_gpio.h ****   */
 149:Drivers/STM32L4xx_HAL_Driver/Inc/stm32l4xx_ll_gpio.h **** 
 150:Drivers/STM32L4xx_HAL_Driver/Inc/stm32l4xx_ll_gpio.h **** /** @defgroup GPIO_LL_EC_MODE Mode
 151:Drivers/STM32L4xx_HAL_Driver/Inc/stm32l4xx_ll_gpio.h ****   * @{
ARM GAS  /tmp/cca8Fq5p.s 			page 5


 152:Drivers/STM32L4xx_HAL_Driver/Inc/stm32l4xx_ll_gpio.h ****   */
 153:Drivers/STM32L4xx_HAL_Driver/Inc/stm32l4xx_ll_gpio.h **** #define LL_GPIO_MODE_INPUT                 (0x00000000U) /*!< Select input mode */
 154:Drivers/STM32L4xx_HAL_Driver/Inc/stm32l4xx_ll_gpio.h **** #define LL_GPIO_MODE_OUTPUT                GPIO_MODER_MODE0_0  /*!< Select output mode */
 155:Drivers/STM32L4xx_HAL_Driver/Inc/stm32l4xx_ll_gpio.h **** #define LL_GPIO_MODE_ALTERNATE             GPIO_MODER_MODE0_1  /*!< Select alternate function mode 
 156:Drivers/STM32L4xx_HAL_Driver/Inc/stm32l4xx_ll_gpio.h **** #define LL_GPIO_MODE_ANALOG                GPIO_MODER_MODE0    /*!< Select analog mode */
 157:Drivers/STM32L4xx_HAL_Driver/Inc/stm32l4xx_ll_gpio.h **** /**
 158:Drivers/STM32L4xx_HAL_Driver/Inc/stm32l4xx_ll_gpio.h ****   * @}
 159:Drivers/STM32L4xx_HAL_Driver/Inc/stm32l4xx_ll_gpio.h ****   */
 160:Drivers/STM32L4xx_HAL_Driver/Inc/stm32l4xx_ll_gpio.h **** 
 161:Drivers/STM32L4xx_HAL_Driver/Inc/stm32l4xx_ll_gpio.h **** /** @defgroup GPIO_LL_EC_OUTPUT Output Type
 162:Drivers/STM32L4xx_HAL_Driver/Inc/stm32l4xx_ll_gpio.h ****   * @{
 163:Drivers/STM32L4xx_HAL_Driver/Inc/stm32l4xx_ll_gpio.h ****   */
 164:Drivers/STM32L4xx_HAL_Driver/Inc/stm32l4xx_ll_gpio.h **** #define LL_GPIO_OUTPUT_PUSHPULL            (0x00000000U) /*!< Select push-pull as output type */
 165:Drivers/STM32L4xx_HAL_Driver/Inc/stm32l4xx_ll_gpio.h **** #define LL_GPIO_OUTPUT_OPENDRAIN           GPIO_OTYPER_OT0 /*!< Select open-drain as output type */
 166:Drivers/STM32L4xx_HAL_Driver/Inc/stm32l4xx_ll_gpio.h **** /**
 167:Drivers/STM32L4xx_HAL_Driver/Inc/stm32l4xx_ll_gpio.h ****   * @}
 168:Drivers/STM32L4xx_HAL_Driver/Inc/stm32l4xx_ll_gpio.h ****   */
 169:Drivers/STM32L4xx_HAL_Driver/Inc/stm32l4xx_ll_gpio.h **** 
 170:Drivers/STM32L4xx_HAL_Driver/Inc/stm32l4xx_ll_gpio.h **** /** @defgroup GPIO_LL_EC_SPEED Output Speed
 171:Drivers/STM32L4xx_HAL_Driver/Inc/stm32l4xx_ll_gpio.h ****   * @{
 172:Drivers/STM32L4xx_HAL_Driver/Inc/stm32l4xx_ll_gpio.h ****   */
 173:Drivers/STM32L4xx_HAL_Driver/Inc/stm32l4xx_ll_gpio.h **** #define LL_GPIO_SPEED_FREQ_LOW             (0x00000000U) /*!< Select I/O low output speed    */
 174:Drivers/STM32L4xx_HAL_Driver/Inc/stm32l4xx_ll_gpio.h **** #define LL_GPIO_SPEED_FREQ_MEDIUM          GPIO_OSPEEDR_OSPEED0_0 /*!< Select I/O medium output spe
 175:Drivers/STM32L4xx_HAL_Driver/Inc/stm32l4xx_ll_gpio.h **** #define LL_GPIO_SPEED_FREQ_HIGH            GPIO_OSPEEDR_OSPEED0_1 /*!< Select I/O fast output speed
 176:Drivers/STM32L4xx_HAL_Driver/Inc/stm32l4xx_ll_gpio.h **** #define LL_GPIO_SPEED_FREQ_VERY_HIGH       GPIO_OSPEEDR_OSPEED0   /*!< Select I/O high output speed
 177:Drivers/STM32L4xx_HAL_Driver/Inc/stm32l4xx_ll_gpio.h **** /**
 178:Drivers/STM32L4xx_HAL_Driver/Inc/stm32l4xx_ll_gpio.h ****   * @}
 179:Drivers/STM32L4xx_HAL_Driver/Inc/stm32l4xx_ll_gpio.h ****   */
 180:Drivers/STM32L4xx_HAL_Driver/Inc/stm32l4xx_ll_gpio.h **** #define LL_GPIO_SPEED_LOW                  LL_GPIO_SPEED_FREQ_LOW
 181:Drivers/STM32L4xx_HAL_Driver/Inc/stm32l4xx_ll_gpio.h **** #define LL_GPIO_SPEED_MEDIUM               LL_GPIO_SPEED_FREQ_MEDIUM
 182:Drivers/STM32L4xx_HAL_Driver/Inc/stm32l4xx_ll_gpio.h **** #define LL_GPIO_SPEED_FAST                 LL_GPIO_SPEED_FREQ_HIGH
 183:Drivers/STM32L4xx_HAL_Driver/Inc/stm32l4xx_ll_gpio.h **** #define LL_GPIO_SPEED_HIGH                 LL_GPIO_SPEED_FREQ_VERY_HIGH
 184:Drivers/STM32L4xx_HAL_Driver/Inc/stm32l4xx_ll_gpio.h **** 
 185:Drivers/STM32L4xx_HAL_Driver/Inc/stm32l4xx_ll_gpio.h **** /** @defgroup GPIO_LL_EC_PULL Pull Up Pull Down
 186:Drivers/STM32L4xx_HAL_Driver/Inc/stm32l4xx_ll_gpio.h ****   * @{
 187:Drivers/STM32L4xx_HAL_Driver/Inc/stm32l4xx_ll_gpio.h ****   */
 188:Drivers/STM32L4xx_HAL_Driver/Inc/stm32l4xx_ll_gpio.h **** #define LL_GPIO_PULL_NO                    (0x00000000U) /*!< Select I/O no pull */
 189:Drivers/STM32L4xx_HAL_Driver/Inc/stm32l4xx_ll_gpio.h **** #define LL_GPIO_PULL_UP                    GPIO_PUPDR_PUPD0_0 /*!< Select I/O pull up */
 190:Drivers/STM32L4xx_HAL_Driver/Inc/stm32l4xx_ll_gpio.h **** #define LL_GPIO_PULL_DOWN                  GPIO_PUPDR_PUPD0_1 /*!< Select I/O pull down */
 191:Drivers/STM32L4xx_HAL_Driver/Inc/stm32l4xx_ll_gpio.h **** /**
 192:Drivers/STM32L4xx_HAL_Driver/Inc/stm32l4xx_ll_gpio.h ****   * @}
 193:Drivers/STM32L4xx_HAL_Driver/Inc/stm32l4xx_ll_gpio.h ****   */
 194:Drivers/STM32L4xx_HAL_Driver/Inc/stm32l4xx_ll_gpio.h **** 
 195:Drivers/STM32L4xx_HAL_Driver/Inc/stm32l4xx_ll_gpio.h **** /** @defgroup GPIO_LL_EC_AF Alternate Function
 196:Drivers/STM32L4xx_HAL_Driver/Inc/stm32l4xx_ll_gpio.h ****   * @{
 197:Drivers/STM32L4xx_HAL_Driver/Inc/stm32l4xx_ll_gpio.h ****   */
 198:Drivers/STM32L4xx_HAL_Driver/Inc/stm32l4xx_ll_gpio.h **** #define LL_GPIO_AF_0                       (0x0000000U) /*!< Select alternate function 0 */
 199:Drivers/STM32L4xx_HAL_Driver/Inc/stm32l4xx_ll_gpio.h **** #define LL_GPIO_AF_1                       (0x0000001U) /*!< Select alternate function 1 */
 200:Drivers/STM32L4xx_HAL_Driver/Inc/stm32l4xx_ll_gpio.h **** #define LL_GPIO_AF_2                       (0x0000002U) /*!< Select alternate function 2 */
 201:Drivers/STM32L4xx_HAL_Driver/Inc/stm32l4xx_ll_gpio.h **** #define LL_GPIO_AF_3                       (0x0000003U) /*!< Select alternate function 3 */
 202:Drivers/STM32L4xx_HAL_Driver/Inc/stm32l4xx_ll_gpio.h **** #define LL_GPIO_AF_4                       (0x0000004U) /*!< Select alternate function 4 */
 203:Drivers/STM32L4xx_HAL_Driver/Inc/stm32l4xx_ll_gpio.h **** #define LL_GPIO_AF_5                       (0x0000005U) /*!< Select alternate function 5 */
 204:Drivers/STM32L4xx_HAL_Driver/Inc/stm32l4xx_ll_gpio.h **** #define LL_GPIO_AF_6                       (0x0000006U) /*!< Select alternate function 6 */
 205:Drivers/STM32L4xx_HAL_Driver/Inc/stm32l4xx_ll_gpio.h **** #define LL_GPIO_AF_7                       (0x0000007U) /*!< Select alternate function 7 */
 206:Drivers/STM32L4xx_HAL_Driver/Inc/stm32l4xx_ll_gpio.h **** #define LL_GPIO_AF_8                       (0x0000008U) /*!< Select alternate function 8 */
 207:Drivers/STM32L4xx_HAL_Driver/Inc/stm32l4xx_ll_gpio.h **** #define LL_GPIO_AF_9                       (0x0000009U) /*!< Select alternate function 9 */
 208:Drivers/STM32L4xx_HAL_Driver/Inc/stm32l4xx_ll_gpio.h **** #define LL_GPIO_AF_10                      (0x000000AU) /*!< Select alternate function 10 */
ARM GAS  /tmp/cca8Fq5p.s 			page 6


 209:Drivers/STM32L4xx_HAL_Driver/Inc/stm32l4xx_ll_gpio.h **** #define LL_GPIO_AF_11                      (0x000000BU) /*!< Select alternate function 11 */
 210:Drivers/STM32L4xx_HAL_Driver/Inc/stm32l4xx_ll_gpio.h **** #define LL_GPIO_AF_12                      (0x000000CU) /*!< Select alternate function 12 */
 211:Drivers/STM32L4xx_HAL_Driver/Inc/stm32l4xx_ll_gpio.h **** #define LL_GPIO_AF_13                      (0x000000DU) /*!< Select alternate function 13 */
 212:Drivers/STM32L4xx_HAL_Driver/Inc/stm32l4xx_ll_gpio.h **** #define LL_GPIO_AF_14                      (0x000000EU) /*!< Select alternate function 14 */
 213:Drivers/STM32L4xx_HAL_Driver/Inc/stm32l4xx_ll_gpio.h **** #define LL_GPIO_AF_15                      (0x000000FU) /*!< Select alternate function 15 */
 214:Drivers/STM32L4xx_HAL_Driver/Inc/stm32l4xx_ll_gpio.h **** /**
 215:Drivers/STM32L4xx_HAL_Driver/Inc/stm32l4xx_ll_gpio.h ****   * @}
 216:Drivers/STM32L4xx_HAL_Driver/Inc/stm32l4xx_ll_gpio.h ****   */
 217:Drivers/STM32L4xx_HAL_Driver/Inc/stm32l4xx_ll_gpio.h **** 
 218:Drivers/STM32L4xx_HAL_Driver/Inc/stm32l4xx_ll_gpio.h **** /**
 219:Drivers/STM32L4xx_HAL_Driver/Inc/stm32l4xx_ll_gpio.h ****   * @}
 220:Drivers/STM32L4xx_HAL_Driver/Inc/stm32l4xx_ll_gpio.h ****   */
 221:Drivers/STM32L4xx_HAL_Driver/Inc/stm32l4xx_ll_gpio.h **** 
 222:Drivers/STM32L4xx_HAL_Driver/Inc/stm32l4xx_ll_gpio.h **** /* Exported macro ------------------------------------------------------------*/
 223:Drivers/STM32L4xx_HAL_Driver/Inc/stm32l4xx_ll_gpio.h **** /** @defgroup GPIO_LL_Exported_Macros GPIO Exported Macros
 224:Drivers/STM32L4xx_HAL_Driver/Inc/stm32l4xx_ll_gpio.h ****   * @{
 225:Drivers/STM32L4xx_HAL_Driver/Inc/stm32l4xx_ll_gpio.h ****   */
 226:Drivers/STM32L4xx_HAL_Driver/Inc/stm32l4xx_ll_gpio.h **** 
 227:Drivers/STM32L4xx_HAL_Driver/Inc/stm32l4xx_ll_gpio.h **** /** @defgroup GPIO_LL_EM_WRITE_READ Common Write and read registers Macros
 228:Drivers/STM32L4xx_HAL_Driver/Inc/stm32l4xx_ll_gpio.h ****   * @{
 229:Drivers/STM32L4xx_HAL_Driver/Inc/stm32l4xx_ll_gpio.h ****   */
 230:Drivers/STM32L4xx_HAL_Driver/Inc/stm32l4xx_ll_gpio.h **** 
 231:Drivers/STM32L4xx_HAL_Driver/Inc/stm32l4xx_ll_gpio.h **** /**
 232:Drivers/STM32L4xx_HAL_Driver/Inc/stm32l4xx_ll_gpio.h ****   * @brief  Write a value in GPIO register
 233:Drivers/STM32L4xx_HAL_Driver/Inc/stm32l4xx_ll_gpio.h ****   * @param  __INSTANCE__ GPIO Instance
 234:Drivers/STM32L4xx_HAL_Driver/Inc/stm32l4xx_ll_gpio.h ****   * @param  __REG__ Register to be written
 235:Drivers/STM32L4xx_HAL_Driver/Inc/stm32l4xx_ll_gpio.h ****   * @param  __VALUE__ Value to be written in the register
 236:Drivers/STM32L4xx_HAL_Driver/Inc/stm32l4xx_ll_gpio.h ****   * @retval None
 237:Drivers/STM32L4xx_HAL_Driver/Inc/stm32l4xx_ll_gpio.h ****   */
 238:Drivers/STM32L4xx_HAL_Driver/Inc/stm32l4xx_ll_gpio.h **** #define LL_GPIO_WriteReg(__INSTANCE__, __REG__, __VALUE__) WRITE_REG(__INSTANCE__->__REG__, (__VALU
 239:Drivers/STM32L4xx_HAL_Driver/Inc/stm32l4xx_ll_gpio.h **** 
 240:Drivers/STM32L4xx_HAL_Driver/Inc/stm32l4xx_ll_gpio.h **** /**
 241:Drivers/STM32L4xx_HAL_Driver/Inc/stm32l4xx_ll_gpio.h ****   * @brief  Read a value in GPIO register
 242:Drivers/STM32L4xx_HAL_Driver/Inc/stm32l4xx_ll_gpio.h ****   * @param  __INSTANCE__ GPIO Instance
 243:Drivers/STM32L4xx_HAL_Driver/Inc/stm32l4xx_ll_gpio.h ****   * @param  __REG__ Register to be read
 244:Drivers/STM32L4xx_HAL_Driver/Inc/stm32l4xx_ll_gpio.h ****   * @retval Register value
 245:Drivers/STM32L4xx_HAL_Driver/Inc/stm32l4xx_ll_gpio.h ****   */
 246:Drivers/STM32L4xx_HAL_Driver/Inc/stm32l4xx_ll_gpio.h **** #define LL_GPIO_ReadReg(__INSTANCE__, __REG__) READ_REG(__INSTANCE__->__REG__)
 247:Drivers/STM32L4xx_HAL_Driver/Inc/stm32l4xx_ll_gpio.h **** /**
 248:Drivers/STM32L4xx_HAL_Driver/Inc/stm32l4xx_ll_gpio.h ****   * @}
 249:Drivers/STM32L4xx_HAL_Driver/Inc/stm32l4xx_ll_gpio.h ****   */
 250:Drivers/STM32L4xx_HAL_Driver/Inc/stm32l4xx_ll_gpio.h **** 
 251:Drivers/STM32L4xx_HAL_Driver/Inc/stm32l4xx_ll_gpio.h **** /**
 252:Drivers/STM32L4xx_HAL_Driver/Inc/stm32l4xx_ll_gpio.h ****   * @}
 253:Drivers/STM32L4xx_HAL_Driver/Inc/stm32l4xx_ll_gpio.h ****   */
 254:Drivers/STM32L4xx_HAL_Driver/Inc/stm32l4xx_ll_gpio.h **** 
 255:Drivers/STM32L4xx_HAL_Driver/Inc/stm32l4xx_ll_gpio.h **** /* Exported functions --------------------------------------------------------*/
 256:Drivers/STM32L4xx_HAL_Driver/Inc/stm32l4xx_ll_gpio.h **** /** @defgroup GPIO_LL_Exported_Functions GPIO Exported Functions
 257:Drivers/STM32L4xx_HAL_Driver/Inc/stm32l4xx_ll_gpio.h ****   * @{
 258:Drivers/STM32L4xx_HAL_Driver/Inc/stm32l4xx_ll_gpio.h ****   */
 259:Drivers/STM32L4xx_HAL_Driver/Inc/stm32l4xx_ll_gpio.h **** 
 260:Drivers/STM32L4xx_HAL_Driver/Inc/stm32l4xx_ll_gpio.h **** /** @defgroup GPIO_LL_EF_Port_Configuration Port Configuration
 261:Drivers/STM32L4xx_HAL_Driver/Inc/stm32l4xx_ll_gpio.h ****   * @{
 262:Drivers/STM32L4xx_HAL_Driver/Inc/stm32l4xx_ll_gpio.h ****   */
 263:Drivers/STM32L4xx_HAL_Driver/Inc/stm32l4xx_ll_gpio.h **** 
 264:Drivers/STM32L4xx_HAL_Driver/Inc/stm32l4xx_ll_gpio.h **** /**
 265:Drivers/STM32L4xx_HAL_Driver/Inc/stm32l4xx_ll_gpio.h ****   * @brief  Configure gpio mode for a dedicated pin on dedicated port.
ARM GAS  /tmp/cca8Fq5p.s 			page 7


 266:Drivers/STM32L4xx_HAL_Driver/Inc/stm32l4xx_ll_gpio.h ****   * @note   I/O mode can be Input mode, General purpose output, Alternate function mode or Analog.
 267:Drivers/STM32L4xx_HAL_Driver/Inc/stm32l4xx_ll_gpio.h ****   * @note   Warning: only one pin can be passed as parameter.
 268:Drivers/STM32L4xx_HAL_Driver/Inc/stm32l4xx_ll_gpio.h ****   * @rmtoll MODER        MODEy         LL_GPIO_SetPinMode
 269:Drivers/STM32L4xx_HAL_Driver/Inc/stm32l4xx_ll_gpio.h ****   * @param  GPIOx GPIO Port
 270:Drivers/STM32L4xx_HAL_Driver/Inc/stm32l4xx_ll_gpio.h ****   * @param  Pin This parameter can be one of the following values:
 271:Drivers/STM32L4xx_HAL_Driver/Inc/stm32l4xx_ll_gpio.h ****   *         @arg @ref LL_GPIO_PIN_0
 272:Drivers/STM32L4xx_HAL_Driver/Inc/stm32l4xx_ll_gpio.h ****   *         @arg @ref LL_GPIO_PIN_1
 273:Drivers/STM32L4xx_HAL_Driver/Inc/stm32l4xx_ll_gpio.h ****   *         @arg @ref LL_GPIO_PIN_2
 274:Drivers/STM32L4xx_HAL_Driver/Inc/stm32l4xx_ll_gpio.h ****   *         @arg @ref LL_GPIO_PIN_3
 275:Drivers/STM32L4xx_HAL_Driver/Inc/stm32l4xx_ll_gpio.h ****   *         @arg @ref LL_GPIO_PIN_4
 276:Drivers/STM32L4xx_HAL_Driver/Inc/stm32l4xx_ll_gpio.h ****   *         @arg @ref LL_GPIO_PIN_5
 277:Drivers/STM32L4xx_HAL_Driver/Inc/stm32l4xx_ll_gpio.h ****   *         @arg @ref LL_GPIO_PIN_6
 278:Drivers/STM32L4xx_HAL_Driver/Inc/stm32l4xx_ll_gpio.h ****   *         @arg @ref LL_GPIO_PIN_7
 279:Drivers/STM32L4xx_HAL_Driver/Inc/stm32l4xx_ll_gpio.h ****   *         @arg @ref LL_GPIO_PIN_8
 280:Drivers/STM32L4xx_HAL_Driver/Inc/stm32l4xx_ll_gpio.h ****   *         @arg @ref LL_GPIO_PIN_9
 281:Drivers/STM32L4xx_HAL_Driver/Inc/stm32l4xx_ll_gpio.h ****   *         @arg @ref LL_GPIO_PIN_10
 282:Drivers/STM32L4xx_HAL_Driver/Inc/stm32l4xx_ll_gpio.h ****   *         @arg @ref LL_GPIO_PIN_11
 283:Drivers/STM32L4xx_HAL_Driver/Inc/stm32l4xx_ll_gpio.h ****   *         @arg @ref LL_GPIO_PIN_12
 284:Drivers/STM32L4xx_HAL_Driver/Inc/stm32l4xx_ll_gpio.h ****   *         @arg @ref LL_GPIO_PIN_13
 285:Drivers/STM32L4xx_HAL_Driver/Inc/stm32l4xx_ll_gpio.h ****   *         @arg @ref LL_GPIO_PIN_14
 286:Drivers/STM32L4xx_HAL_Driver/Inc/stm32l4xx_ll_gpio.h ****   *         @arg @ref LL_GPIO_PIN_15
 287:Drivers/STM32L4xx_HAL_Driver/Inc/stm32l4xx_ll_gpio.h ****   * @param  Mode This parameter can be one of the following values:
 288:Drivers/STM32L4xx_HAL_Driver/Inc/stm32l4xx_ll_gpio.h ****   *         @arg @ref LL_GPIO_MODE_INPUT
 289:Drivers/STM32L4xx_HAL_Driver/Inc/stm32l4xx_ll_gpio.h ****   *         @arg @ref LL_GPIO_MODE_OUTPUT
 290:Drivers/STM32L4xx_HAL_Driver/Inc/stm32l4xx_ll_gpio.h ****   *         @arg @ref LL_GPIO_MODE_ALTERNATE
 291:Drivers/STM32L4xx_HAL_Driver/Inc/stm32l4xx_ll_gpio.h ****   *         @arg @ref LL_GPIO_MODE_ANALOG
 292:Drivers/STM32L4xx_HAL_Driver/Inc/stm32l4xx_ll_gpio.h ****   * @retval None
 293:Drivers/STM32L4xx_HAL_Driver/Inc/stm32l4xx_ll_gpio.h ****   */
 294:Drivers/STM32L4xx_HAL_Driver/Inc/stm32l4xx_ll_gpio.h **** __STATIC_INLINE void LL_GPIO_SetPinMode(GPIO_TypeDef *GPIOx, uint32_t Pin, uint32_t Mode)
 295:Drivers/STM32L4xx_HAL_Driver/Inc/stm32l4xx_ll_gpio.h **** {
 296:Drivers/STM32L4xx_HAL_Driver/Inc/stm32l4xx_ll_gpio.h ****   MODIFY_REG(GPIOx->MODER, (GPIO_MODER_MODE0 << (POSITION_VAL(Pin) * 2U)), (Mode << (POSITION_VAL(P
 297:Drivers/STM32L4xx_HAL_Driver/Inc/stm32l4xx_ll_gpio.h **** }
 298:Drivers/STM32L4xx_HAL_Driver/Inc/stm32l4xx_ll_gpio.h **** 
 299:Drivers/STM32L4xx_HAL_Driver/Inc/stm32l4xx_ll_gpio.h **** /**
 300:Drivers/STM32L4xx_HAL_Driver/Inc/stm32l4xx_ll_gpio.h ****   * @brief  Return gpio mode for a dedicated pin on dedicated port.
 301:Drivers/STM32L4xx_HAL_Driver/Inc/stm32l4xx_ll_gpio.h ****   * @note   I/O mode can be Input mode, General purpose output, Alternate function mode or Analog.
 302:Drivers/STM32L4xx_HAL_Driver/Inc/stm32l4xx_ll_gpio.h ****   * @note   Warning: only one pin can be passed as parameter.
 303:Drivers/STM32L4xx_HAL_Driver/Inc/stm32l4xx_ll_gpio.h ****   * @rmtoll MODER        MODEy         LL_GPIO_GetPinMode
 304:Drivers/STM32L4xx_HAL_Driver/Inc/stm32l4xx_ll_gpio.h ****   * @param  GPIOx GPIO Port
 305:Drivers/STM32L4xx_HAL_Driver/Inc/stm32l4xx_ll_gpio.h ****   * @param  Pin This parameter can be one of the following values:
 306:Drivers/STM32L4xx_HAL_Driver/Inc/stm32l4xx_ll_gpio.h ****   *         @arg @ref LL_GPIO_PIN_0
 307:Drivers/STM32L4xx_HAL_Driver/Inc/stm32l4xx_ll_gpio.h ****   *         @arg @ref LL_GPIO_PIN_1
 308:Drivers/STM32L4xx_HAL_Driver/Inc/stm32l4xx_ll_gpio.h ****   *         @arg @ref LL_GPIO_PIN_2
 309:Drivers/STM32L4xx_HAL_Driver/Inc/stm32l4xx_ll_gpio.h ****   *         @arg @ref LL_GPIO_PIN_3
 310:Drivers/STM32L4xx_HAL_Driver/Inc/stm32l4xx_ll_gpio.h ****   *         @arg @ref LL_GPIO_PIN_4
 311:Drivers/STM32L4xx_HAL_Driver/Inc/stm32l4xx_ll_gpio.h ****   *         @arg @ref LL_GPIO_PIN_5
 312:Drivers/STM32L4xx_HAL_Driver/Inc/stm32l4xx_ll_gpio.h ****   *         @arg @ref LL_GPIO_PIN_6
 313:Drivers/STM32L4xx_HAL_Driver/Inc/stm32l4xx_ll_gpio.h ****   *         @arg @ref LL_GPIO_PIN_7
 314:Drivers/STM32L4xx_HAL_Driver/Inc/stm32l4xx_ll_gpio.h ****   *         @arg @ref LL_GPIO_PIN_8
 315:Drivers/STM32L4xx_HAL_Driver/Inc/stm32l4xx_ll_gpio.h ****   *         @arg @ref LL_GPIO_PIN_9
 316:Drivers/STM32L4xx_HAL_Driver/Inc/stm32l4xx_ll_gpio.h ****   *         @arg @ref LL_GPIO_PIN_10
 317:Drivers/STM32L4xx_HAL_Driver/Inc/stm32l4xx_ll_gpio.h ****   *         @arg @ref LL_GPIO_PIN_11
 318:Drivers/STM32L4xx_HAL_Driver/Inc/stm32l4xx_ll_gpio.h ****   *         @arg @ref LL_GPIO_PIN_12
 319:Drivers/STM32L4xx_HAL_Driver/Inc/stm32l4xx_ll_gpio.h ****   *         @arg @ref LL_GPIO_PIN_13
 320:Drivers/STM32L4xx_HAL_Driver/Inc/stm32l4xx_ll_gpio.h ****   *         @arg @ref LL_GPIO_PIN_14
 321:Drivers/STM32L4xx_HAL_Driver/Inc/stm32l4xx_ll_gpio.h ****   *         @arg @ref LL_GPIO_PIN_15
 322:Drivers/STM32L4xx_HAL_Driver/Inc/stm32l4xx_ll_gpio.h ****   * @retval Returned value can be one of the following values:
ARM GAS  /tmp/cca8Fq5p.s 			page 8


 323:Drivers/STM32L4xx_HAL_Driver/Inc/stm32l4xx_ll_gpio.h ****   *         @arg @ref LL_GPIO_MODE_INPUT
 324:Drivers/STM32L4xx_HAL_Driver/Inc/stm32l4xx_ll_gpio.h ****   *         @arg @ref LL_GPIO_MODE_OUTPUT
 325:Drivers/STM32L4xx_HAL_Driver/Inc/stm32l4xx_ll_gpio.h ****   *         @arg @ref LL_GPIO_MODE_ALTERNATE
 326:Drivers/STM32L4xx_HAL_Driver/Inc/stm32l4xx_ll_gpio.h ****   *         @arg @ref LL_GPIO_MODE_ANALOG
 327:Drivers/STM32L4xx_HAL_Driver/Inc/stm32l4xx_ll_gpio.h ****   */
 328:Drivers/STM32L4xx_HAL_Driver/Inc/stm32l4xx_ll_gpio.h **** __STATIC_INLINE uint32_t LL_GPIO_GetPinMode(GPIO_TypeDef *GPIOx, uint32_t Pin)
 329:Drivers/STM32L4xx_HAL_Driver/Inc/stm32l4xx_ll_gpio.h **** {
 330:Drivers/STM32L4xx_HAL_Driver/Inc/stm32l4xx_ll_gpio.h ****   return (uint32_t)(READ_BIT(GPIOx->MODER,
 331:Drivers/STM32L4xx_HAL_Driver/Inc/stm32l4xx_ll_gpio.h ****                              (GPIO_MODER_MODE0 << (POSITION_VAL(Pin) * 2U))) >> (POSITION_VAL(Pin) 
 332:Drivers/STM32L4xx_HAL_Driver/Inc/stm32l4xx_ll_gpio.h **** }
 333:Drivers/STM32L4xx_HAL_Driver/Inc/stm32l4xx_ll_gpio.h **** 
 334:Drivers/STM32L4xx_HAL_Driver/Inc/stm32l4xx_ll_gpio.h **** /**
 335:Drivers/STM32L4xx_HAL_Driver/Inc/stm32l4xx_ll_gpio.h ****   * @brief  Configure gpio output type for several pins on dedicated port.
 336:Drivers/STM32L4xx_HAL_Driver/Inc/stm32l4xx_ll_gpio.h ****   * @note   Output type as to be set when gpio pin is in output or
 337:Drivers/STM32L4xx_HAL_Driver/Inc/stm32l4xx_ll_gpio.h ****   *         alternate modes. Possible type are Push-pull or Open-drain.
 338:Drivers/STM32L4xx_HAL_Driver/Inc/stm32l4xx_ll_gpio.h ****   * @rmtoll OTYPER       OTy           LL_GPIO_SetPinOutputType
 339:Drivers/STM32L4xx_HAL_Driver/Inc/stm32l4xx_ll_gpio.h ****   * @param  GPIOx GPIO Port
 340:Drivers/STM32L4xx_HAL_Driver/Inc/stm32l4xx_ll_gpio.h ****   * @param  PinMask This parameter can be a combination of the following values:
 341:Drivers/STM32L4xx_HAL_Driver/Inc/stm32l4xx_ll_gpio.h ****   *         @arg @ref LL_GPIO_PIN_0
 342:Drivers/STM32L4xx_HAL_Driver/Inc/stm32l4xx_ll_gpio.h ****   *         @arg @ref LL_GPIO_PIN_1
 343:Drivers/STM32L4xx_HAL_Driver/Inc/stm32l4xx_ll_gpio.h ****   *         @arg @ref LL_GPIO_PIN_2
 344:Drivers/STM32L4xx_HAL_Driver/Inc/stm32l4xx_ll_gpio.h ****   *         @arg @ref LL_GPIO_PIN_3
 345:Drivers/STM32L4xx_HAL_Driver/Inc/stm32l4xx_ll_gpio.h ****   *         @arg @ref LL_GPIO_PIN_4
 346:Drivers/STM32L4xx_HAL_Driver/Inc/stm32l4xx_ll_gpio.h ****   *         @arg @ref LL_GPIO_PIN_5
 347:Drivers/STM32L4xx_HAL_Driver/Inc/stm32l4xx_ll_gpio.h ****   *         @arg @ref LL_GPIO_PIN_6
 348:Drivers/STM32L4xx_HAL_Driver/Inc/stm32l4xx_ll_gpio.h ****   *         @arg @ref LL_GPIO_PIN_7
 349:Drivers/STM32L4xx_HAL_Driver/Inc/stm32l4xx_ll_gpio.h ****   *         @arg @ref LL_GPIO_PIN_8
 350:Drivers/STM32L4xx_HAL_Driver/Inc/stm32l4xx_ll_gpio.h ****   *         @arg @ref LL_GPIO_PIN_9
 351:Drivers/STM32L4xx_HAL_Driver/Inc/stm32l4xx_ll_gpio.h ****   *         @arg @ref LL_GPIO_PIN_10
 352:Drivers/STM32L4xx_HAL_Driver/Inc/stm32l4xx_ll_gpio.h ****   *         @arg @ref LL_GPIO_PIN_11
 353:Drivers/STM32L4xx_HAL_Driver/Inc/stm32l4xx_ll_gpio.h ****   *         @arg @ref LL_GPIO_PIN_12
 354:Drivers/STM32L4xx_HAL_Driver/Inc/stm32l4xx_ll_gpio.h ****   *         @arg @ref LL_GPIO_PIN_13
 355:Drivers/STM32L4xx_HAL_Driver/Inc/stm32l4xx_ll_gpio.h ****   *         @arg @ref LL_GPIO_PIN_14
 356:Drivers/STM32L4xx_HAL_Driver/Inc/stm32l4xx_ll_gpio.h ****   *         @arg @ref LL_GPIO_PIN_15
 357:Drivers/STM32L4xx_HAL_Driver/Inc/stm32l4xx_ll_gpio.h ****   *         @arg @ref LL_GPIO_PIN_ALL
 358:Drivers/STM32L4xx_HAL_Driver/Inc/stm32l4xx_ll_gpio.h ****   * @param  OutputType This parameter can be one of the following values:
 359:Drivers/STM32L4xx_HAL_Driver/Inc/stm32l4xx_ll_gpio.h ****   *         @arg @ref LL_GPIO_OUTPUT_PUSHPULL
 360:Drivers/STM32L4xx_HAL_Driver/Inc/stm32l4xx_ll_gpio.h ****   *         @arg @ref LL_GPIO_OUTPUT_OPENDRAIN
 361:Drivers/STM32L4xx_HAL_Driver/Inc/stm32l4xx_ll_gpio.h ****   * @retval None
 362:Drivers/STM32L4xx_HAL_Driver/Inc/stm32l4xx_ll_gpio.h ****   */
 363:Drivers/STM32L4xx_HAL_Driver/Inc/stm32l4xx_ll_gpio.h **** __STATIC_INLINE void LL_GPIO_SetPinOutputType(GPIO_TypeDef *GPIOx, uint32_t PinMask, uint32_t Outpu
 364:Drivers/STM32L4xx_HAL_Driver/Inc/stm32l4xx_ll_gpio.h **** {
 365:Drivers/STM32L4xx_HAL_Driver/Inc/stm32l4xx_ll_gpio.h ****   MODIFY_REG(GPIOx->OTYPER, PinMask, (PinMask * OutputType));
 366:Drivers/STM32L4xx_HAL_Driver/Inc/stm32l4xx_ll_gpio.h **** }
 367:Drivers/STM32L4xx_HAL_Driver/Inc/stm32l4xx_ll_gpio.h **** 
 368:Drivers/STM32L4xx_HAL_Driver/Inc/stm32l4xx_ll_gpio.h **** /**
 369:Drivers/STM32L4xx_HAL_Driver/Inc/stm32l4xx_ll_gpio.h ****   * @brief  Return gpio output type for several pins on dedicated port.
 370:Drivers/STM32L4xx_HAL_Driver/Inc/stm32l4xx_ll_gpio.h ****   * @note   Output type as to be set when gpio pin is in output or
 371:Drivers/STM32L4xx_HAL_Driver/Inc/stm32l4xx_ll_gpio.h ****   *         alternate modes. Possible type are Push-pull or Open-drain.
 372:Drivers/STM32L4xx_HAL_Driver/Inc/stm32l4xx_ll_gpio.h ****   * @note   Warning: only one pin can be passed as parameter.
 373:Drivers/STM32L4xx_HAL_Driver/Inc/stm32l4xx_ll_gpio.h ****   * @rmtoll OTYPER       OTy           LL_GPIO_GetPinOutputType
 374:Drivers/STM32L4xx_HAL_Driver/Inc/stm32l4xx_ll_gpio.h ****   * @param  GPIOx GPIO Port
 375:Drivers/STM32L4xx_HAL_Driver/Inc/stm32l4xx_ll_gpio.h ****   * @param  Pin This parameter can be one of the following values:
 376:Drivers/STM32L4xx_HAL_Driver/Inc/stm32l4xx_ll_gpio.h ****   *         @arg @ref LL_GPIO_PIN_0
 377:Drivers/STM32L4xx_HAL_Driver/Inc/stm32l4xx_ll_gpio.h ****   *         @arg @ref LL_GPIO_PIN_1
 378:Drivers/STM32L4xx_HAL_Driver/Inc/stm32l4xx_ll_gpio.h ****   *         @arg @ref LL_GPIO_PIN_2
 379:Drivers/STM32L4xx_HAL_Driver/Inc/stm32l4xx_ll_gpio.h ****   *         @arg @ref LL_GPIO_PIN_3
ARM GAS  /tmp/cca8Fq5p.s 			page 9


 380:Drivers/STM32L4xx_HAL_Driver/Inc/stm32l4xx_ll_gpio.h ****   *         @arg @ref LL_GPIO_PIN_4
 381:Drivers/STM32L4xx_HAL_Driver/Inc/stm32l4xx_ll_gpio.h ****   *         @arg @ref LL_GPIO_PIN_5
 382:Drivers/STM32L4xx_HAL_Driver/Inc/stm32l4xx_ll_gpio.h ****   *         @arg @ref LL_GPIO_PIN_6
 383:Drivers/STM32L4xx_HAL_Driver/Inc/stm32l4xx_ll_gpio.h ****   *         @arg @ref LL_GPIO_PIN_7
 384:Drivers/STM32L4xx_HAL_Driver/Inc/stm32l4xx_ll_gpio.h ****   *         @arg @ref LL_GPIO_PIN_8
 385:Drivers/STM32L4xx_HAL_Driver/Inc/stm32l4xx_ll_gpio.h ****   *         @arg @ref LL_GPIO_PIN_9
 386:Drivers/STM32L4xx_HAL_Driver/Inc/stm32l4xx_ll_gpio.h ****   *         @arg @ref LL_GPIO_PIN_10
 387:Drivers/STM32L4xx_HAL_Driver/Inc/stm32l4xx_ll_gpio.h ****   *         @arg @ref LL_GPIO_PIN_11
 388:Drivers/STM32L4xx_HAL_Driver/Inc/stm32l4xx_ll_gpio.h ****   *         @arg @ref LL_GPIO_PIN_12
 389:Drivers/STM32L4xx_HAL_Driver/Inc/stm32l4xx_ll_gpio.h ****   *         @arg @ref LL_GPIO_PIN_13
 390:Drivers/STM32L4xx_HAL_Driver/Inc/stm32l4xx_ll_gpio.h ****   *         @arg @ref LL_GPIO_PIN_14
 391:Drivers/STM32L4xx_HAL_Driver/Inc/stm32l4xx_ll_gpio.h ****   *         @arg @ref LL_GPIO_PIN_15
 392:Drivers/STM32L4xx_HAL_Driver/Inc/stm32l4xx_ll_gpio.h ****   *         @arg @ref LL_GPIO_PIN_ALL
 393:Drivers/STM32L4xx_HAL_Driver/Inc/stm32l4xx_ll_gpio.h ****   * @retval Returned value can be one of the following values:
 394:Drivers/STM32L4xx_HAL_Driver/Inc/stm32l4xx_ll_gpio.h ****   *         @arg @ref LL_GPIO_OUTPUT_PUSHPULL
 395:Drivers/STM32L4xx_HAL_Driver/Inc/stm32l4xx_ll_gpio.h ****   *         @arg @ref LL_GPIO_OUTPUT_OPENDRAIN
 396:Drivers/STM32L4xx_HAL_Driver/Inc/stm32l4xx_ll_gpio.h ****   */
 397:Drivers/STM32L4xx_HAL_Driver/Inc/stm32l4xx_ll_gpio.h **** __STATIC_INLINE uint32_t LL_GPIO_GetPinOutputType(GPIO_TypeDef *GPIOx, uint32_t Pin)
 398:Drivers/STM32L4xx_HAL_Driver/Inc/stm32l4xx_ll_gpio.h **** {
 399:Drivers/STM32L4xx_HAL_Driver/Inc/stm32l4xx_ll_gpio.h ****   return (uint32_t)(READ_BIT(GPIOx->OTYPER, Pin) >> POSITION_VAL(Pin));
 400:Drivers/STM32L4xx_HAL_Driver/Inc/stm32l4xx_ll_gpio.h **** }
 401:Drivers/STM32L4xx_HAL_Driver/Inc/stm32l4xx_ll_gpio.h **** 
 402:Drivers/STM32L4xx_HAL_Driver/Inc/stm32l4xx_ll_gpio.h **** /**
 403:Drivers/STM32L4xx_HAL_Driver/Inc/stm32l4xx_ll_gpio.h ****   * @brief  Configure gpio speed for a dedicated pin on dedicated port.
 404:Drivers/STM32L4xx_HAL_Driver/Inc/stm32l4xx_ll_gpio.h ****   * @note   I/O speed can be Low, Medium, Fast or High speed.
 405:Drivers/STM32L4xx_HAL_Driver/Inc/stm32l4xx_ll_gpio.h ****   * @note   Warning: only one pin can be passed as parameter.
 406:Drivers/STM32L4xx_HAL_Driver/Inc/stm32l4xx_ll_gpio.h ****   * @note   Refer to datasheet for frequency specifications and the power
 407:Drivers/STM32L4xx_HAL_Driver/Inc/stm32l4xx_ll_gpio.h ****   *         supply and load conditions for each speed.
 408:Drivers/STM32L4xx_HAL_Driver/Inc/stm32l4xx_ll_gpio.h ****   * @rmtoll OSPEEDR      OSPEEDy       LL_GPIO_SetPinSpeed
 409:Drivers/STM32L4xx_HAL_Driver/Inc/stm32l4xx_ll_gpio.h ****   * @param  GPIOx GPIO Port
 410:Drivers/STM32L4xx_HAL_Driver/Inc/stm32l4xx_ll_gpio.h ****   * @param  Pin This parameter can be one of the following values:
 411:Drivers/STM32L4xx_HAL_Driver/Inc/stm32l4xx_ll_gpio.h ****   *         @arg @ref LL_GPIO_PIN_0
 412:Drivers/STM32L4xx_HAL_Driver/Inc/stm32l4xx_ll_gpio.h ****   *         @arg @ref LL_GPIO_PIN_1
 413:Drivers/STM32L4xx_HAL_Driver/Inc/stm32l4xx_ll_gpio.h ****   *         @arg @ref LL_GPIO_PIN_2
 414:Drivers/STM32L4xx_HAL_Driver/Inc/stm32l4xx_ll_gpio.h ****   *         @arg @ref LL_GPIO_PIN_3
 415:Drivers/STM32L4xx_HAL_Driver/Inc/stm32l4xx_ll_gpio.h ****   *         @arg @ref LL_GPIO_PIN_4
 416:Drivers/STM32L4xx_HAL_Driver/Inc/stm32l4xx_ll_gpio.h ****   *         @arg @ref LL_GPIO_PIN_5
 417:Drivers/STM32L4xx_HAL_Driver/Inc/stm32l4xx_ll_gpio.h ****   *         @arg @ref LL_GPIO_PIN_6
 418:Drivers/STM32L4xx_HAL_Driver/Inc/stm32l4xx_ll_gpio.h ****   *         @arg @ref LL_GPIO_PIN_7
 419:Drivers/STM32L4xx_HAL_Driver/Inc/stm32l4xx_ll_gpio.h ****   *         @arg @ref LL_GPIO_PIN_8
 420:Drivers/STM32L4xx_HAL_Driver/Inc/stm32l4xx_ll_gpio.h ****   *         @arg @ref LL_GPIO_PIN_9
 421:Drivers/STM32L4xx_HAL_Driver/Inc/stm32l4xx_ll_gpio.h ****   *         @arg @ref LL_GPIO_PIN_10
 422:Drivers/STM32L4xx_HAL_Driver/Inc/stm32l4xx_ll_gpio.h ****   *         @arg @ref LL_GPIO_PIN_11
 423:Drivers/STM32L4xx_HAL_Driver/Inc/stm32l4xx_ll_gpio.h ****   *         @arg @ref LL_GPIO_PIN_12
 424:Drivers/STM32L4xx_HAL_Driver/Inc/stm32l4xx_ll_gpio.h ****   *         @arg @ref LL_GPIO_PIN_13
 425:Drivers/STM32L4xx_HAL_Driver/Inc/stm32l4xx_ll_gpio.h ****   *         @arg @ref LL_GPIO_PIN_14
 426:Drivers/STM32L4xx_HAL_Driver/Inc/stm32l4xx_ll_gpio.h ****   *         @arg @ref LL_GPIO_PIN_15
 427:Drivers/STM32L4xx_HAL_Driver/Inc/stm32l4xx_ll_gpio.h ****   * @param  Speed This parameter can be one of the following values:
 428:Drivers/STM32L4xx_HAL_Driver/Inc/stm32l4xx_ll_gpio.h ****   *         @arg @ref LL_GPIO_SPEED_FREQ_LOW
 429:Drivers/STM32L4xx_HAL_Driver/Inc/stm32l4xx_ll_gpio.h ****   *         @arg @ref LL_GPIO_SPEED_FREQ_MEDIUM
 430:Drivers/STM32L4xx_HAL_Driver/Inc/stm32l4xx_ll_gpio.h ****   *         @arg @ref LL_GPIO_SPEED_FREQ_HIGH
 431:Drivers/STM32L4xx_HAL_Driver/Inc/stm32l4xx_ll_gpio.h ****   *         @arg @ref LL_GPIO_SPEED_FREQ_VERY_HIGH
 432:Drivers/STM32L4xx_HAL_Driver/Inc/stm32l4xx_ll_gpio.h ****   * @retval None
 433:Drivers/STM32L4xx_HAL_Driver/Inc/stm32l4xx_ll_gpio.h ****   */
 434:Drivers/STM32L4xx_HAL_Driver/Inc/stm32l4xx_ll_gpio.h **** __STATIC_INLINE void LL_GPIO_SetPinSpeed(GPIO_TypeDef *GPIOx, uint32_t Pin, uint32_t  Speed)
 435:Drivers/STM32L4xx_HAL_Driver/Inc/stm32l4xx_ll_gpio.h **** {
 436:Drivers/STM32L4xx_HAL_Driver/Inc/stm32l4xx_ll_gpio.h ****   MODIFY_REG(GPIOx->OSPEEDR, (GPIO_OSPEEDR_OSPEED0 << (POSITION_VAL(Pin) * 2U)),
ARM GAS  /tmp/cca8Fq5p.s 			page 10


 437:Drivers/STM32L4xx_HAL_Driver/Inc/stm32l4xx_ll_gpio.h ****              (Speed << (POSITION_VAL(Pin) * 2U)));
 438:Drivers/STM32L4xx_HAL_Driver/Inc/stm32l4xx_ll_gpio.h **** }
 439:Drivers/STM32L4xx_HAL_Driver/Inc/stm32l4xx_ll_gpio.h **** 
 440:Drivers/STM32L4xx_HAL_Driver/Inc/stm32l4xx_ll_gpio.h **** /**
 441:Drivers/STM32L4xx_HAL_Driver/Inc/stm32l4xx_ll_gpio.h ****   * @brief  Return gpio speed for a dedicated pin on dedicated port.
 442:Drivers/STM32L4xx_HAL_Driver/Inc/stm32l4xx_ll_gpio.h ****   * @note   I/O speed can be Low, Medium, Fast or High speed.
 443:Drivers/STM32L4xx_HAL_Driver/Inc/stm32l4xx_ll_gpio.h ****   * @note   Warning: only one pin can be passed as parameter.
 444:Drivers/STM32L4xx_HAL_Driver/Inc/stm32l4xx_ll_gpio.h ****   * @note   Refer to datasheet for frequency specifications and the power
 445:Drivers/STM32L4xx_HAL_Driver/Inc/stm32l4xx_ll_gpio.h ****   *         supply and load conditions for each speed.
 446:Drivers/STM32L4xx_HAL_Driver/Inc/stm32l4xx_ll_gpio.h ****   * @rmtoll OSPEEDR      OSPEEDy       LL_GPIO_GetPinSpeed
 447:Drivers/STM32L4xx_HAL_Driver/Inc/stm32l4xx_ll_gpio.h ****   * @param  GPIOx GPIO Port
 448:Drivers/STM32L4xx_HAL_Driver/Inc/stm32l4xx_ll_gpio.h ****   * @param  Pin This parameter can be one of the following values:
 449:Drivers/STM32L4xx_HAL_Driver/Inc/stm32l4xx_ll_gpio.h ****   *         @arg @ref LL_GPIO_PIN_0
 450:Drivers/STM32L4xx_HAL_Driver/Inc/stm32l4xx_ll_gpio.h ****   *         @arg @ref LL_GPIO_PIN_1
 451:Drivers/STM32L4xx_HAL_Driver/Inc/stm32l4xx_ll_gpio.h ****   *         @arg @ref LL_GPIO_PIN_2
 452:Drivers/STM32L4xx_HAL_Driver/Inc/stm32l4xx_ll_gpio.h ****   *         @arg @ref LL_GPIO_PIN_3
 453:Drivers/STM32L4xx_HAL_Driver/Inc/stm32l4xx_ll_gpio.h ****   *         @arg @ref LL_GPIO_PIN_4
 454:Drivers/STM32L4xx_HAL_Driver/Inc/stm32l4xx_ll_gpio.h ****   *         @arg @ref LL_GPIO_PIN_5
 455:Drivers/STM32L4xx_HAL_Driver/Inc/stm32l4xx_ll_gpio.h ****   *         @arg @ref LL_GPIO_PIN_6
 456:Drivers/STM32L4xx_HAL_Driver/Inc/stm32l4xx_ll_gpio.h ****   *         @arg @ref LL_GPIO_PIN_7
 457:Drivers/STM32L4xx_HAL_Driver/Inc/stm32l4xx_ll_gpio.h ****   *         @arg @ref LL_GPIO_PIN_8
 458:Drivers/STM32L4xx_HAL_Driver/Inc/stm32l4xx_ll_gpio.h ****   *         @arg @ref LL_GPIO_PIN_9
 459:Drivers/STM32L4xx_HAL_Driver/Inc/stm32l4xx_ll_gpio.h ****   *         @arg @ref LL_GPIO_PIN_10
 460:Drivers/STM32L4xx_HAL_Driver/Inc/stm32l4xx_ll_gpio.h ****   *         @arg @ref LL_GPIO_PIN_11
 461:Drivers/STM32L4xx_HAL_Driver/Inc/stm32l4xx_ll_gpio.h ****   *         @arg @ref LL_GPIO_PIN_12
 462:Drivers/STM32L4xx_HAL_Driver/Inc/stm32l4xx_ll_gpio.h ****   *         @arg @ref LL_GPIO_PIN_13
 463:Drivers/STM32L4xx_HAL_Driver/Inc/stm32l4xx_ll_gpio.h ****   *         @arg @ref LL_GPIO_PIN_14
 464:Drivers/STM32L4xx_HAL_Driver/Inc/stm32l4xx_ll_gpio.h ****   *         @arg @ref LL_GPIO_PIN_15
 465:Drivers/STM32L4xx_HAL_Driver/Inc/stm32l4xx_ll_gpio.h ****   * @retval Returned value can be one of the following values:
 466:Drivers/STM32L4xx_HAL_Driver/Inc/stm32l4xx_ll_gpio.h ****   *         @arg @ref LL_GPIO_SPEED_FREQ_LOW
 467:Drivers/STM32L4xx_HAL_Driver/Inc/stm32l4xx_ll_gpio.h ****   *         @arg @ref LL_GPIO_SPEED_FREQ_MEDIUM
 468:Drivers/STM32L4xx_HAL_Driver/Inc/stm32l4xx_ll_gpio.h ****   *         @arg @ref LL_GPIO_SPEED_FREQ_HIGH
 469:Drivers/STM32L4xx_HAL_Driver/Inc/stm32l4xx_ll_gpio.h ****   *         @arg @ref LL_GPIO_SPEED_FREQ_VERY_HIGH
 470:Drivers/STM32L4xx_HAL_Driver/Inc/stm32l4xx_ll_gpio.h ****   */
 471:Drivers/STM32L4xx_HAL_Driver/Inc/stm32l4xx_ll_gpio.h **** __STATIC_INLINE uint32_t LL_GPIO_GetPinSpeed(GPIO_TypeDef *GPIOx, uint32_t Pin)
 472:Drivers/STM32L4xx_HAL_Driver/Inc/stm32l4xx_ll_gpio.h **** {
 473:Drivers/STM32L4xx_HAL_Driver/Inc/stm32l4xx_ll_gpio.h ****   return (uint32_t)(READ_BIT(GPIOx->OSPEEDR,
 474:Drivers/STM32L4xx_HAL_Driver/Inc/stm32l4xx_ll_gpio.h ****                              (GPIO_OSPEEDR_OSPEED0 << (POSITION_VAL(Pin) * 2U))) >> (POSITION_VAL(P
 475:Drivers/STM32L4xx_HAL_Driver/Inc/stm32l4xx_ll_gpio.h **** }
 476:Drivers/STM32L4xx_HAL_Driver/Inc/stm32l4xx_ll_gpio.h **** 
 477:Drivers/STM32L4xx_HAL_Driver/Inc/stm32l4xx_ll_gpio.h **** /**
 478:Drivers/STM32L4xx_HAL_Driver/Inc/stm32l4xx_ll_gpio.h ****   * @brief  Configure gpio pull-up or pull-down for a dedicated pin on a dedicated port.
 479:Drivers/STM32L4xx_HAL_Driver/Inc/stm32l4xx_ll_gpio.h ****   * @note   Warning: only one pin can be passed as parameter.
 480:Drivers/STM32L4xx_HAL_Driver/Inc/stm32l4xx_ll_gpio.h ****   * @rmtoll PUPDR        PUPDy         LL_GPIO_SetPinPull
 481:Drivers/STM32L4xx_HAL_Driver/Inc/stm32l4xx_ll_gpio.h ****   * @param  GPIOx GPIO Port
 482:Drivers/STM32L4xx_HAL_Driver/Inc/stm32l4xx_ll_gpio.h ****   * @param  Pin This parameter can be one of the following values:
 483:Drivers/STM32L4xx_HAL_Driver/Inc/stm32l4xx_ll_gpio.h ****   *         @arg @ref LL_GPIO_PIN_0
 484:Drivers/STM32L4xx_HAL_Driver/Inc/stm32l4xx_ll_gpio.h ****   *         @arg @ref LL_GPIO_PIN_1
 485:Drivers/STM32L4xx_HAL_Driver/Inc/stm32l4xx_ll_gpio.h ****   *         @arg @ref LL_GPIO_PIN_2
 486:Drivers/STM32L4xx_HAL_Driver/Inc/stm32l4xx_ll_gpio.h ****   *         @arg @ref LL_GPIO_PIN_3
 487:Drivers/STM32L4xx_HAL_Driver/Inc/stm32l4xx_ll_gpio.h ****   *         @arg @ref LL_GPIO_PIN_4
 488:Drivers/STM32L4xx_HAL_Driver/Inc/stm32l4xx_ll_gpio.h ****   *         @arg @ref LL_GPIO_PIN_5
 489:Drivers/STM32L4xx_HAL_Driver/Inc/stm32l4xx_ll_gpio.h ****   *         @arg @ref LL_GPIO_PIN_6
 490:Drivers/STM32L4xx_HAL_Driver/Inc/stm32l4xx_ll_gpio.h ****   *         @arg @ref LL_GPIO_PIN_7
 491:Drivers/STM32L4xx_HAL_Driver/Inc/stm32l4xx_ll_gpio.h ****   *         @arg @ref LL_GPIO_PIN_8
 492:Drivers/STM32L4xx_HAL_Driver/Inc/stm32l4xx_ll_gpio.h ****   *         @arg @ref LL_GPIO_PIN_9
 493:Drivers/STM32L4xx_HAL_Driver/Inc/stm32l4xx_ll_gpio.h ****   *         @arg @ref LL_GPIO_PIN_10
ARM GAS  /tmp/cca8Fq5p.s 			page 11


 494:Drivers/STM32L4xx_HAL_Driver/Inc/stm32l4xx_ll_gpio.h ****   *         @arg @ref LL_GPIO_PIN_11
 495:Drivers/STM32L4xx_HAL_Driver/Inc/stm32l4xx_ll_gpio.h ****   *         @arg @ref LL_GPIO_PIN_12
 496:Drivers/STM32L4xx_HAL_Driver/Inc/stm32l4xx_ll_gpio.h ****   *         @arg @ref LL_GPIO_PIN_13
 497:Drivers/STM32L4xx_HAL_Driver/Inc/stm32l4xx_ll_gpio.h ****   *         @arg @ref LL_GPIO_PIN_14
 498:Drivers/STM32L4xx_HAL_Driver/Inc/stm32l4xx_ll_gpio.h ****   *         @arg @ref LL_GPIO_PIN_15
 499:Drivers/STM32L4xx_HAL_Driver/Inc/stm32l4xx_ll_gpio.h ****   * @param  Pull This parameter can be one of the following values:
 500:Drivers/STM32L4xx_HAL_Driver/Inc/stm32l4xx_ll_gpio.h ****   *         @arg @ref LL_GPIO_PULL_NO
 501:Drivers/STM32L4xx_HAL_Driver/Inc/stm32l4xx_ll_gpio.h ****   *         @arg @ref LL_GPIO_PULL_UP
 502:Drivers/STM32L4xx_HAL_Driver/Inc/stm32l4xx_ll_gpio.h ****   *         @arg @ref LL_GPIO_PULL_DOWN
 503:Drivers/STM32L4xx_HAL_Driver/Inc/stm32l4xx_ll_gpio.h ****   * @retval None
 504:Drivers/STM32L4xx_HAL_Driver/Inc/stm32l4xx_ll_gpio.h ****   */
 505:Drivers/STM32L4xx_HAL_Driver/Inc/stm32l4xx_ll_gpio.h **** __STATIC_INLINE void LL_GPIO_SetPinPull(GPIO_TypeDef *GPIOx, uint32_t Pin, uint32_t Pull)
 506:Drivers/STM32L4xx_HAL_Driver/Inc/stm32l4xx_ll_gpio.h **** {
 507:Drivers/STM32L4xx_HAL_Driver/Inc/stm32l4xx_ll_gpio.h ****   MODIFY_REG(GPIOx->PUPDR, (GPIO_PUPDR_PUPD0 << (POSITION_VAL(Pin) * 2U)), (Pull << (POSITION_VAL(P
 508:Drivers/STM32L4xx_HAL_Driver/Inc/stm32l4xx_ll_gpio.h **** }
 509:Drivers/STM32L4xx_HAL_Driver/Inc/stm32l4xx_ll_gpio.h **** 
 510:Drivers/STM32L4xx_HAL_Driver/Inc/stm32l4xx_ll_gpio.h **** /**
 511:Drivers/STM32L4xx_HAL_Driver/Inc/stm32l4xx_ll_gpio.h ****   * @brief  Return gpio pull-up or pull-down for a dedicated pin on a dedicated port
 512:Drivers/STM32L4xx_HAL_Driver/Inc/stm32l4xx_ll_gpio.h ****   * @note   Warning: only one pin can be passed as parameter.
 513:Drivers/STM32L4xx_HAL_Driver/Inc/stm32l4xx_ll_gpio.h ****   * @rmtoll PUPDR        PUPDy         LL_GPIO_GetPinPull
 514:Drivers/STM32L4xx_HAL_Driver/Inc/stm32l4xx_ll_gpio.h ****   * @param  GPIOx GPIO Port
 515:Drivers/STM32L4xx_HAL_Driver/Inc/stm32l4xx_ll_gpio.h ****   * @param  Pin This parameter can be one of the following values:
 516:Drivers/STM32L4xx_HAL_Driver/Inc/stm32l4xx_ll_gpio.h ****   *         @arg @ref LL_GPIO_PIN_0
 517:Drivers/STM32L4xx_HAL_Driver/Inc/stm32l4xx_ll_gpio.h ****   *         @arg @ref LL_GPIO_PIN_1
 518:Drivers/STM32L4xx_HAL_Driver/Inc/stm32l4xx_ll_gpio.h ****   *         @arg @ref LL_GPIO_PIN_2
 519:Drivers/STM32L4xx_HAL_Driver/Inc/stm32l4xx_ll_gpio.h ****   *         @arg @ref LL_GPIO_PIN_3
 520:Drivers/STM32L4xx_HAL_Driver/Inc/stm32l4xx_ll_gpio.h ****   *         @arg @ref LL_GPIO_PIN_4
 521:Drivers/STM32L4xx_HAL_Driver/Inc/stm32l4xx_ll_gpio.h ****   *         @arg @ref LL_GPIO_PIN_5
 522:Drivers/STM32L4xx_HAL_Driver/Inc/stm32l4xx_ll_gpio.h ****   *         @arg @ref LL_GPIO_PIN_6
 523:Drivers/STM32L4xx_HAL_Driver/Inc/stm32l4xx_ll_gpio.h ****   *         @arg @ref LL_GPIO_PIN_7
 524:Drivers/STM32L4xx_HAL_Driver/Inc/stm32l4xx_ll_gpio.h ****   *         @arg @ref LL_GPIO_PIN_8
 525:Drivers/STM32L4xx_HAL_Driver/Inc/stm32l4xx_ll_gpio.h ****   *         @arg @ref LL_GPIO_PIN_9
 526:Drivers/STM32L4xx_HAL_Driver/Inc/stm32l4xx_ll_gpio.h ****   *         @arg @ref LL_GPIO_PIN_10
 527:Drivers/STM32L4xx_HAL_Driver/Inc/stm32l4xx_ll_gpio.h ****   *         @arg @ref LL_GPIO_PIN_11
 528:Drivers/STM32L4xx_HAL_Driver/Inc/stm32l4xx_ll_gpio.h ****   *         @arg @ref LL_GPIO_PIN_12
 529:Drivers/STM32L4xx_HAL_Driver/Inc/stm32l4xx_ll_gpio.h ****   *         @arg @ref LL_GPIO_PIN_13
 530:Drivers/STM32L4xx_HAL_Driver/Inc/stm32l4xx_ll_gpio.h ****   *         @arg @ref LL_GPIO_PIN_14
 531:Drivers/STM32L4xx_HAL_Driver/Inc/stm32l4xx_ll_gpio.h ****   *         @arg @ref LL_GPIO_PIN_15
 532:Drivers/STM32L4xx_HAL_Driver/Inc/stm32l4xx_ll_gpio.h ****   * @retval Returned value can be one of the following values:
 533:Drivers/STM32L4xx_HAL_Driver/Inc/stm32l4xx_ll_gpio.h ****   *         @arg @ref LL_GPIO_PULL_NO
 534:Drivers/STM32L4xx_HAL_Driver/Inc/stm32l4xx_ll_gpio.h ****   *         @arg @ref LL_GPIO_PULL_UP
 535:Drivers/STM32L4xx_HAL_Driver/Inc/stm32l4xx_ll_gpio.h ****   *         @arg @ref LL_GPIO_PULL_DOWN
 536:Drivers/STM32L4xx_HAL_Driver/Inc/stm32l4xx_ll_gpio.h ****   */
 537:Drivers/STM32L4xx_HAL_Driver/Inc/stm32l4xx_ll_gpio.h **** __STATIC_INLINE uint32_t LL_GPIO_GetPinPull(GPIO_TypeDef *GPIOx, uint32_t Pin)
 538:Drivers/STM32L4xx_HAL_Driver/Inc/stm32l4xx_ll_gpio.h **** {
 539:Drivers/STM32L4xx_HAL_Driver/Inc/stm32l4xx_ll_gpio.h ****   return (uint32_t)(READ_BIT(GPIOx->PUPDR,
 540:Drivers/STM32L4xx_HAL_Driver/Inc/stm32l4xx_ll_gpio.h ****                              (GPIO_PUPDR_PUPD0 << (POSITION_VAL(Pin) * 2U))) >> (POSITION_VAL(Pin) 
 541:Drivers/STM32L4xx_HAL_Driver/Inc/stm32l4xx_ll_gpio.h **** }
 542:Drivers/STM32L4xx_HAL_Driver/Inc/stm32l4xx_ll_gpio.h **** 
 543:Drivers/STM32L4xx_HAL_Driver/Inc/stm32l4xx_ll_gpio.h **** /**
 544:Drivers/STM32L4xx_HAL_Driver/Inc/stm32l4xx_ll_gpio.h ****   * @brief  Configure gpio alternate function of a dedicated pin from 0 to 7 for a dedicated port.
 545:Drivers/STM32L4xx_HAL_Driver/Inc/stm32l4xx_ll_gpio.h ****   * @note   Possible values are from AF0 to AF15 depending on target.
 546:Drivers/STM32L4xx_HAL_Driver/Inc/stm32l4xx_ll_gpio.h ****   * @note   Warning: only one pin can be passed as parameter.
 547:Drivers/STM32L4xx_HAL_Driver/Inc/stm32l4xx_ll_gpio.h ****   * @rmtoll AFRL         AFSELy        LL_GPIO_SetAFPin_0_7
 548:Drivers/STM32L4xx_HAL_Driver/Inc/stm32l4xx_ll_gpio.h ****   * @param  GPIOx GPIO Port
 549:Drivers/STM32L4xx_HAL_Driver/Inc/stm32l4xx_ll_gpio.h ****   * @param  Pin This parameter can be one of the following values:
 550:Drivers/STM32L4xx_HAL_Driver/Inc/stm32l4xx_ll_gpio.h ****   *         @arg @ref LL_GPIO_PIN_0
ARM GAS  /tmp/cca8Fq5p.s 			page 12


 551:Drivers/STM32L4xx_HAL_Driver/Inc/stm32l4xx_ll_gpio.h ****   *         @arg @ref LL_GPIO_PIN_1
 552:Drivers/STM32L4xx_HAL_Driver/Inc/stm32l4xx_ll_gpio.h ****   *         @arg @ref LL_GPIO_PIN_2
 553:Drivers/STM32L4xx_HAL_Driver/Inc/stm32l4xx_ll_gpio.h ****   *         @arg @ref LL_GPIO_PIN_3
 554:Drivers/STM32L4xx_HAL_Driver/Inc/stm32l4xx_ll_gpio.h ****   *         @arg @ref LL_GPIO_PIN_4
 555:Drivers/STM32L4xx_HAL_Driver/Inc/stm32l4xx_ll_gpio.h ****   *         @arg @ref LL_GPIO_PIN_5
 556:Drivers/STM32L4xx_HAL_Driver/Inc/stm32l4xx_ll_gpio.h ****   *         @arg @ref LL_GPIO_PIN_6
 557:Drivers/STM32L4xx_HAL_Driver/Inc/stm32l4xx_ll_gpio.h ****   *         @arg @ref LL_GPIO_PIN_7
 558:Drivers/STM32L4xx_HAL_Driver/Inc/stm32l4xx_ll_gpio.h ****   * @param  Alternate This parameter can be one of the following values:
 559:Drivers/STM32L4xx_HAL_Driver/Inc/stm32l4xx_ll_gpio.h ****   *         @arg @ref LL_GPIO_AF_0
 560:Drivers/STM32L4xx_HAL_Driver/Inc/stm32l4xx_ll_gpio.h ****   *         @arg @ref LL_GPIO_AF_1
 561:Drivers/STM32L4xx_HAL_Driver/Inc/stm32l4xx_ll_gpio.h ****   *         @arg @ref LL_GPIO_AF_2
 562:Drivers/STM32L4xx_HAL_Driver/Inc/stm32l4xx_ll_gpio.h ****   *         @arg @ref LL_GPIO_AF_3
 563:Drivers/STM32L4xx_HAL_Driver/Inc/stm32l4xx_ll_gpio.h ****   *         @arg @ref LL_GPIO_AF_4
 564:Drivers/STM32L4xx_HAL_Driver/Inc/stm32l4xx_ll_gpio.h ****   *         @arg @ref LL_GPIO_AF_5
 565:Drivers/STM32L4xx_HAL_Driver/Inc/stm32l4xx_ll_gpio.h ****   *         @arg @ref LL_GPIO_AF_6
 566:Drivers/STM32L4xx_HAL_Driver/Inc/stm32l4xx_ll_gpio.h ****   *         @arg @ref LL_GPIO_AF_7
 567:Drivers/STM32L4xx_HAL_Driver/Inc/stm32l4xx_ll_gpio.h ****   *         @arg @ref LL_GPIO_AF_8
 568:Drivers/STM32L4xx_HAL_Driver/Inc/stm32l4xx_ll_gpio.h ****   *         @arg @ref LL_GPIO_AF_9
 569:Drivers/STM32L4xx_HAL_Driver/Inc/stm32l4xx_ll_gpio.h ****   *         @arg @ref LL_GPIO_AF_10
 570:Drivers/STM32L4xx_HAL_Driver/Inc/stm32l4xx_ll_gpio.h ****   *         @arg @ref LL_GPIO_AF_11
 571:Drivers/STM32L4xx_HAL_Driver/Inc/stm32l4xx_ll_gpio.h ****   *         @arg @ref LL_GPIO_AF_12
 572:Drivers/STM32L4xx_HAL_Driver/Inc/stm32l4xx_ll_gpio.h ****   *         @arg @ref LL_GPIO_AF_13
 573:Drivers/STM32L4xx_HAL_Driver/Inc/stm32l4xx_ll_gpio.h ****   *         @arg @ref LL_GPIO_AF_14
 574:Drivers/STM32L4xx_HAL_Driver/Inc/stm32l4xx_ll_gpio.h ****   *         @arg @ref LL_GPIO_AF_15
 575:Drivers/STM32L4xx_HAL_Driver/Inc/stm32l4xx_ll_gpio.h ****   * @retval None
 576:Drivers/STM32L4xx_HAL_Driver/Inc/stm32l4xx_ll_gpio.h ****   */
 577:Drivers/STM32L4xx_HAL_Driver/Inc/stm32l4xx_ll_gpio.h **** __STATIC_INLINE void LL_GPIO_SetAFPin_0_7(GPIO_TypeDef *GPIOx, uint32_t Pin, uint32_t Alternate)
 578:Drivers/STM32L4xx_HAL_Driver/Inc/stm32l4xx_ll_gpio.h **** {
 579:Drivers/STM32L4xx_HAL_Driver/Inc/stm32l4xx_ll_gpio.h ****   MODIFY_REG(GPIOx->AFR[0], (GPIO_AFRL_AFSEL0 << (POSITION_VAL(Pin) * 4U)),
 580:Drivers/STM32L4xx_HAL_Driver/Inc/stm32l4xx_ll_gpio.h ****              (Alternate << (POSITION_VAL(Pin) * 4U)));
 581:Drivers/STM32L4xx_HAL_Driver/Inc/stm32l4xx_ll_gpio.h **** }
 582:Drivers/STM32L4xx_HAL_Driver/Inc/stm32l4xx_ll_gpio.h **** 
 583:Drivers/STM32L4xx_HAL_Driver/Inc/stm32l4xx_ll_gpio.h **** /**
 584:Drivers/STM32L4xx_HAL_Driver/Inc/stm32l4xx_ll_gpio.h ****   * @brief  Return gpio alternate function of a dedicated pin from 0 to 7 for a dedicated port.
 585:Drivers/STM32L4xx_HAL_Driver/Inc/stm32l4xx_ll_gpio.h ****   * @rmtoll AFRL         AFSELy        LL_GPIO_GetAFPin_0_7
 586:Drivers/STM32L4xx_HAL_Driver/Inc/stm32l4xx_ll_gpio.h ****   * @param  GPIOx GPIO Port
 587:Drivers/STM32L4xx_HAL_Driver/Inc/stm32l4xx_ll_gpio.h ****   * @param  Pin This parameter can be one of the following values:
 588:Drivers/STM32L4xx_HAL_Driver/Inc/stm32l4xx_ll_gpio.h ****   *         @arg @ref LL_GPIO_PIN_0
 589:Drivers/STM32L4xx_HAL_Driver/Inc/stm32l4xx_ll_gpio.h ****   *         @arg @ref LL_GPIO_PIN_1
 590:Drivers/STM32L4xx_HAL_Driver/Inc/stm32l4xx_ll_gpio.h ****   *         @arg @ref LL_GPIO_PIN_2
 591:Drivers/STM32L4xx_HAL_Driver/Inc/stm32l4xx_ll_gpio.h ****   *         @arg @ref LL_GPIO_PIN_3
 592:Drivers/STM32L4xx_HAL_Driver/Inc/stm32l4xx_ll_gpio.h ****   *         @arg @ref LL_GPIO_PIN_4
 593:Drivers/STM32L4xx_HAL_Driver/Inc/stm32l4xx_ll_gpio.h ****   *         @arg @ref LL_GPIO_PIN_5
 594:Drivers/STM32L4xx_HAL_Driver/Inc/stm32l4xx_ll_gpio.h ****   *         @arg @ref LL_GPIO_PIN_6
 595:Drivers/STM32L4xx_HAL_Driver/Inc/stm32l4xx_ll_gpio.h ****   *         @arg @ref LL_GPIO_PIN_7
 596:Drivers/STM32L4xx_HAL_Driver/Inc/stm32l4xx_ll_gpio.h ****   * @retval Returned value can be one of the following values:
 597:Drivers/STM32L4xx_HAL_Driver/Inc/stm32l4xx_ll_gpio.h ****   *         @arg @ref LL_GPIO_AF_0
 598:Drivers/STM32L4xx_HAL_Driver/Inc/stm32l4xx_ll_gpio.h ****   *         @arg @ref LL_GPIO_AF_1
 599:Drivers/STM32L4xx_HAL_Driver/Inc/stm32l4xx_ll_gpio.h ****   *         @arg @ref LL_GPIO_AF_2
 600:Drivers/STM32L4xx_HAL_Driver/Inc/stm32l4xx_ll_gpio.h ****   *         @arg @ref LL_GPIO_AF_3
 601:Drivers/STM32L4xx_HAL_Driver/Inc/stm32l4xx_ll_gpio.h ****   *         @arg @ref LL_GPIO_AF_4
 602:Drivers/STM32L4xx_HAL_Driver/Inc/stm32l4xx_ll_gpio.h ****   *         @arg @ref LL_GPIO_AF_5
 603:Drivers/STM32L4xx_HAL_Driver/Inc/stm32l4xx_ll_gpio.h ****   *         @arg @ref LL_GPIO_AF_6
 604:Drivers/STM32L4xx_HAL_Driver/Inc/stm32l4xx_ll_gpio.h ****   *         @arg @ref LL_GPIO_AF_7
 605:Drivers/STM32L4xx_HAL_Driver/Inc/stm32l4xx_ll_gpio.h ****   *         @arg @ref LL_GPIO_AF_8
 606:Drivers/STM32L4xx_HAL_Driver/Inc/stm32l4xx_ll_gpio.h ****   *         @arg @ref LL_GPIO_AF_9
 607:Drivers/STM32L4xx_HAL_Driver/Inc/stm32l4xx_ll_gpio.h ****   *         @arg @ref LL_GPIO_AF_10
ARM GAS  /tmp/cca8Fq5p.s 			page 13


 608:Drivers/STM32L4xx_HAL_Driver/Inc/stm32l4xx_ll_gpio.h ****   *         @arg @ref LL_GPIO_AF_11
 609:Drivers/STM32L4xx_HAL_Driver/Inc/stm32l4xx_ll_gpio.h ****   *         @arg @ref LL_GPIO_AF_12
 610:Drivers/STM32L4xx_HAL_Driver/Inc/stm32l4xx_ll_gpio.h ****   *         @arg @ref LL_GPIO_AF_13
 611:Drivers/STM32L4xx_HAL_Driver/Inc/stm32l4xx_ll_gpio.h ****   *         @arg @ref LL_GPIO_AF_14
 612:Drivers/STM32L4xx_HAL_Driver/Inc/stm32l4xx_ll_gpio.h ****   *         @arg @ref LL_GPIO_AF_15
 613:Drivers/STM32L4xx_HAL_Driver/Inc/stm32l4xx_ll_gpio.h ****   */
 614:Drivers/STM32L4xx_HAL_Driver/Inc/stm32l4xx_ll_gpio.h **** __STATIC_INLINE uint32_t LL_GPIO_GetAFPin_0_7(GPIO_TypeDef *GPIOx, uint32_t Pin)
 615:Drivers/STM32L4xx_HAL_Driver/Inc/stm32l4xx_ll_gpio.h **** {
 616:Drivers/STM32L4xx_HAL_Driver/Inc/stm32l4xx_ll_gpio.h ****   return (uint32_t)(READ_BIT(GPIOx->AFR[0],
 617:Drivers/STM32L4xx_HAL_Driver/Inc/stm32l4xx_ll_gpio.h ****                              (GPIO_AFRL_AFSEL0 << (POSITION_VAL(Pin) * 4U))) >> (POSITION_VAL(Pin) 
 618:Drivers/STM32L4xx_HAL_Driver/Inc/stm32l4xx_ll_gpio.h **** }
 619:Drivers/STM32L4xx_HAL_Driver/Inc/stm32l4xx_ll_gpio.h **** 
 620:Drivers/STM32L4xx_HAL_Driver/Inc/stm32l4xx_ll_gpio.h **** /**
 621:Drivers/STM32L4xx_HAL_Driver/Inc/stm32l4xx_ll_gpio.h ****   * @brief  Configure gpio alternate function of a dedicated pin from 8 to 15 for a dedicated port.
 622:Drivers/STM32L4xx_HAL_Driver/Inc/stm32l4xx_ll_gpio.h ****   * @note   Possible values are from AF0 to AF15 depending on target.
 623:Drivers/STM32L4xx_HAL_Driver/Inc/stm32l4xx_ll_gpio.h ****   * @note   Warning: only one pin can be passed as parameter.
 624:Drivers/STM32L4xx_HAL_Driver/Inc/stm32l4xx_ll_gpio.h ****   * @rmtoll AFRH         AFSELy        LL_GPIO_SetAFPin_8_15
 625:Drivers/STM32L4xx_HAL_Driver/Inc/stm32l4xx_ll_gpio.h ****   * @param  GPIOx GPIO Port
 626:Drivers/STM32L4xx_HAL_Driver/Inc/stm32l4xx_ll_gpio.h ****   * @param  Pin This parameter can be one of the following values:
 627:Drivers/STM32L4xx_HAL_Driver/Inc/stm32l4xx_ll_gpio.h ****   *         @arg @ref LL_GPIO_PIN_8
 628:Drivers/STM32L4xx_HAL_Driver/Inc/stm32l4xx_ll_gpio.h ****   *         @arg @ref LL_GPIO_PIN_9
 629:Drivers/STM32L4xx_HAL_Driver/Inc/stm32l4xx_ll_gpio.h ****   *         @arg @ref LL_GPIO_PIN_10
 630:Drivers/STM32L4xx_HAL_Driver/Inc/stm32l4xx_ll_gpio.h ****   *         @arg @ref LL_GPIO_PIN_11
 631:Drivers/STM32L4xx_HAL_Driver/Inc/stm32l4xx_ll_gpio.h ****   *         @arg @ref LL_GPIO_PIN_12
 632:Drivers/STM32L4xx_HAL_Driver/Inc/stm32l4xx_ll_gpio.h ****   *         @arg @ref LL_GPIO_PIN_13
 633:Drivers/STM32L4xx_HAL_Driver/Inc/stm32l4xx_ll_gpio.h ****   *         @arg @ref LL_GPIO_PIN_14
 634:Drivers/STM32L4xx_HAL_Driver/Inc/stm32l4xx_ll_gpio.h ****   *         @arg @ref LL_GPIO_PIN_15
 635:Drivers/STM32L4xx_HAL_Driver/Inc/stm32l4xx_ll_gpio.h ****   * @param  Alternate This parameter can be one of the following values:
 636:Drivers/STM32L4xx_HAL_Driver/Inc/stm32l4xx_ll_gpio.h ****   *         @arg @ref LL_GPIO_AF_0
 637:Drivers/STM32L4xx_HAL_Driver/Inc/stm32l4xx_ll_gpio.h ****   *         @arg @ref LL_GPIO_AF_1
 638:Drivers/STM32L4xx_HAL_Driver/Inc/stm32l4xx_ll_gpio.h ****   *         @arg @ref LL_GPIO_AF_2
 639:Drivers/STM32L4xx_HAL_Driver/Inc/stm32l4xx_ll_gpio.h ****   *         @arg @ref LL_GPIO_AF_3
 640:Drivers/STM32L4xx_HAL_Driver/Inc/stm32l4xx_ll_gpio.h ****   *         @arg @ref LL_GPIO_AF_4
 641:Drivers/STM32L4xx_HAL_Driver/Inc/stm32l4xx_ll_gpio.h ****   *         @arg @ref LL_GPIO_AF_5
 642:Drivers/STM32L4xx_HAL_Driver/Inc/stm32l4xx_ll_gpio.h ****   *         @arg @ref LL_GPIO_AF_6
 643:Drivers/STM32L4xx_HAL_Driver/Inc/stm32l4xx_ll_gpio.h ****   *         @arg @ref LL_GPIO_AF_7
 644:Drivers/STM32L4xx_HAL_Driver/Inc/stm32l4xx_ll_gpio.h ****   *         @arg @ref LL_GPIO_AF_8
 645:Drivers/STM32L4xx_HAL_Driver/Inc/stm32l4xx_ll_gpio.h ****   *         @arg @ref LL_GPIO_AF_9
 646:Drivers/STM32L4xx_HAL_Driver/Inc/stm32l4xx_ll_gpio.h ****   *         @arg @ref LL_GPIO_AF_10
 647:Drivers/STM32L4xx_HAL_Driver/Inc/stm32l4xx_ll_gpio.h ****   *         @arg @ref LL_GPIO_AF_11
 648:Drivers/STM32L4xx_HAL_Driver/Inc/stm32l4xx_ll_gpio.h ****   *         @arg @ref LL_GPIO_AF_12
 649:Drivers/STM32L4xx_HAL_Driver/Inc/stm32l4xx_ll_gpio.h ****   *         @arg @ref LL_GPIO_AF_13
 650:Drivers/STM32L4xx_HAL_Driver/Inc/stm32l4xx_ll_gpio.h ****   *         @arg @ref LL_GPIO_AF_14
 651:Drivers/STM32L4xx_HAL_Driver/Inc/stm32l4xx_ll_gpio.h ****   *         @arg @ref LL_GPIO_AF_15
 652:Drivers/STM32L4xx_HAL_Driver/Inc/stm32l4xx_ll_gpio.h ****   * @retval None
 653:Drivers/STM32L4xx_HAL_Driver/Inc/stm32l4xx_ll_gpio.h ****   */
 654:Drivers/STM32L4xx_HAL_Driver/Inc/stm32l4xx_ll_gpio.h **** __STATIC_INLINE void LL_GPIO_SetAFPin_8_15(GPIO_TypeDef *GPIOx, uint32_t Pin, uint32_t Alternate)
 655:Drivers/STM32L4xx_HAL_Driver/Inc/stm32l4xx_ll_gpio.h **** {
 656:Drivers/STM32L4xx_HAL_Driver/Inc/stm32l4xx_ll_gpio.h ****   MODIFY_REG(GPIOx->AFR[1], (GPIO_AFRH_AFSEL8 << (POSITION_VAL(Pin >> 8U) * 4U)),
 657:Drivers/STM32L4xx_HAL_Driver/Inc/stm32l4xx_ll_gpio.h ****              (Alternate << (POSITION_VAL(Pin >> 8U) * 4U)));
 658:Drivers/STM32L4xx_HAL_Driver/Inc/stm32l4xx_ll_gpio.h **** }
 659:Drivers/STM32L4xx_HAL_Driver/Inc/stm32l4xx_ll_gpio.h **** 
 660:Drivers/STM32L4xx_HAL_Driver/Inc/stm32l4xx_ll_gpio.h **** /**
 661:Drivers/STM32L4xx_HAL_Driver/Inc/stm32l4xx_ll_gpio.h ****   * @brief  Return gpio alternate function of a dedicated pin from 8 to 15 for a dedicated port.
 662:Drivers/STM32L4xx_HAL_Driver/Inc/stm32l4xx_ll_gpio.h ****   * @note   Possible values are from AF0 to AF15 depending on target.
 663:Drivers/STM32L4xx_HAL_Driver/Inc/stm32l4xx_ll_gpio.h ****   * @rmtoll AFRH         AFSELy        LL_GPIO_GetAFPin_8_15
 664:Drivers/STM32L4xx_HAL_Driver/Inc/stm32l4xx_ll_gpio.h ****   * @param  GPIOx GPIO Port
ARM GAS  /tmp/cca8Fq5p.s 			page 14


 665:Drivers/STM32L4xx_HAL_Driver/Inc/stm32l4xx_ll_gpio.h ****   * @param  Pin This parameter can be one of the following values:
 666:Drivers/STM32L4xx_HAL_Driver/Inc/stm32l4xx_ll_gpio.h ****   *         @arg @ref LL_GPIO_PIN_8
 667:Drivers/STM32L4xx_HAL_Driver/Inc/stm32l4xx_ll_gpio.h ****   *         @arg @ref LL_GPIO_PIN_9
 668:Drivers/STM32L4xx_HAL_Driver/Inc/stm32l4xx_ll_gpio.h ****   *         @arg @ref LL_GPIO_PIN_10
 669:Drivers/STM32L4xx_HAL_Driver/Inc/stm32l4xx_ll_gpio.h ****   *         @arg @ref LL_GPIO_PIN_11
 670:Drivers/STM32L4xx_HAL_Driver/Inc/stm32l4xx_ll_gpio.h ****   *         @arg @ref LL_GPIO_PIN_12
 671:Drivers/STM32L4xx_HAL_Driver/Inc/stm32l4xx_ll_gpio.h ****   *         @arg @ref LL_GPIO_PIN_13
 672:Drivers/STM32L4xx_HAL_Driver/Inc/stm32l4xx_ll_gpio.h ****   *         @arg @ref LL_GPIO_PIN_14
 673:Drivers/STM32L4xx_HAL_Driver/Inc/stm32l4xx_ll_gpio.h ****   *         @arg @ref LL_GPIO_PIN_15
 674:Drivers/STM32L4xx_HAL_Driver/Inc/stm32l4xx_ll_gpio.h ****   * @retval Returned value can be one of the following values:
 675:Drivers/STM32L4xx_HAL_Driver/Inc/stm32l4xx_ll_gpio.h ****   *         @arg @ref LL_GPIO_AF_0
 676:Drivers/STM32L4xx_HAL_Driver/Inc/stm32l4xx_ll_gpio.h ****   *         @arg @ref LL_GPIO_AF_1
 677:Drivers/STM32L4xx_HAL_Driver/Inc/stm32l4xx_ll_gpio.h ****   *         @arg @ref LL_GPIO_AF_2
 678:Drivers/STM32L4xx_HAL_Driver/Inc/stm32l4xx_ll_gpio.h ****   *         @arg @ref LL_GPIO_AF_3
 679:Drivers/STM32L4xx_HAL_Driver/Inc/stm32l4xx_ll_gpio.h ****   *         @arg @ref LL_GPIO_AF_4
 680:Drivers/STM32L4xx_HAL_Driver/Inc/stm32l4xx_ll_gpio.h ****   *         @arg @ref LL_GPIO_AF_5
 681:Drivers/STM32L4xx_HAL_Driver/Inc/stm32l4xx_ll_gpio.h ****   *         @arg @ref LL_GPIO_AF_6
 682:Drivers/STM32L4xx_HAL_Driver/Inc/stm32l4xx_ll_gpio.h ****   *         @arg @ref LL_GPIO_AF_7
 683:Drivers/STM32L4xx_HAL_Driver/Inc/stm32l4xx_ll_gpio.h ****   *         @arg @ref LL_GPIO_AF_8
 684:Drivers/STM32L4xx_HAL_Driver/Inc/stm32l4xx_ll_gpio.h ****   *         @arg @ref LL_GPIO_AF_9
 685:Drivers/STM32L4xx_HAL_Driver/Inc/stm32l4xx_ll_gpio.h ****   *         @arg @ref LL_GPIO_AF_10
 686:Drivers/STM32L4xx_HAL_Driver/Inc/stm32l4xx_ll_gpio.h ****   *         @arg @ref LL_GPIO_AF_11
 687:Drivers/STM32L4xx_HAL_Driver/Inc/stm32l4xx_ll_gpio.h ****   *         @arg @ref LL_GPIO_AF_12
 688:Drivers/STM32L4xx_HAL_Driver/Inc/stm32l4xx_ll_gpio.h ****   *         @arg @ref LL_GPIO_AF_13
 689:Drivers/STM32L4xx_HAL_Driver/Inc/stm32l4xx_ll_gpio.h ****   *         @arg @ref LL_GPIO_AF_14
 690:Drivers/STM32L4xx_HAL_Driver/Inc/stm32l4xx_ll_gpio.h ****   *         @arg @ref LL_GPIO_AF_15
 691:Drivers/STM32L4xx_HAL_Driver/Inc/stm32l4xx_ll_gpio.h ****   */
 692:Drivers/STM32L4xx_HAL_Driver/Inc/stm32l4xx_ll_gpio.h **** __STATIC_INLINE uint32_t LL_GPIO_GetAFPin_8_15(GPIO_TypeDef *GPIOx, uint32_t Pin)
 693:Drivers/STM32L4xx_HAL_Driver/Inc/stm32l4xx_ll_gpio.h **** {
 694:Drivers/STM32L4xx_HAL_Driver/Inc/stm32l4xx_ll_gpio.h ****   return (uint32_t)(READ_BIT(GPIOx->AFR[1],
 695:Drivers/STM32L4xx_HAL_Driver/Inc/stm32l4xx_ll_gpio.h ****                              (GPIO_AFRH_AFSEL8 << (POSITION_VAL(Pin >> 8U) * 4U))) >> (POSITION_VAL
 696:Drivers/STM32L4xx_HAL_Driver/Inc/stm32l4xx_ll_gpio.h **** }
 697:Drivers/STM32L4xx_HAL_Driver/Inc/stm32l4xx_ll_gpio.h **** 
 698:Drivers/STM32L4xx_HAL_Driver/Inc/stm32l4xx_ll_gpio.h **** #if defined(GPIO_ASCR_ASC0)
 699:Drivers/STM32L4xx_HAL_Driver/Inc/stm32l4xx_ll_gpio.h **** /**
 700:Drivers/STM32L4xx_HAL_Driver/Inc/stm32l4xx_ll_gpio.h ****   * @brief  Connect analog switch to ADC input of several pins for a dedicated port.
 701:Drivers/STM32L4xx_HAL_Driver/Inc/stm32l4xx_ll_gpio.h ****   * @note   This bit must be set prior to the ADC conversion.
 702:Drivers/STM32L4xx_HAL_Driver/Inc/stm32l4xx_ll_gpio.h ****   *         Only the IO which connected to the ADC input are effective.
 703:Drivers/STM32L4xx_HAL_Driver/Inc/stm32l4xx_ll_gpio.h ****   *         Other IO must be kept reset value
 704:Drivers/STM32L4xx_HAL_Driver/Inc/stm32l4xx_ll_gpio.h ****   * @rmtoll ASCR         ASCy          LL_GPIO_EnablePinAnalogControl
 705:Drivers/STM32L4xx_HAL_Driver/Inc/stm32l4xx_ll_gpio.h ****   * @param  GPIOx GPIO Port
 706:Drivers/STM32L4xx_HAL_Driver/Inc/stm32l4xx_ll_gpio.h ****   * @param  PinMask This parameter can be a combination of the following values:
 707:Drivers/STM32L4xx_HAL_Driver/Inc/stm32l4xx_ll_gpio.h ****   *         @arg @ref LL_GPIO_PIN_0
 708:Drivers/STM32L4xx_HAL_Driver/Inc/stm32l4xx_ll_gpio.h ****   *         @arg @ref LL_GPIO_PIN_1
 709:Drivers/STM32L4xx_HAL_Driver/Inc/stm32l4xx_ll_gpio.h ****   *         @arg @ref LL_GPIO_PIN_2
 710:Drivers/STM32L4xx_HAL_Driver/Inc/stm32l4xx_ll_gpio.h ****   *         @arg @ref LL_GPIO_PIN_3
 711:Drivers/STM32L4xx_HAL_Driver/Inc/stm32l4xx_ll_gpio.h ****   *         @arg @ref LL_GPIO_PIN_4
 712:Drivers/STM32L4xx_HAL_Driver/Inc/stm32l4xx_ll_gpio.h ****   *         @arg @ref LL_GPIO_PIN_5
 713:Drivers/STM32L4xx_HAL_Driver/Inc/stm32l4xx_ll_gpio.h ****   *         @arg @ref LL_GPIO_PIN_6
 714:Drivers/STM32L4xx_HAL_Driver/Inc/stm32l4xx_ll_gpio.h ****   *         @arg @ref LL_GPIO_PIN_7
 715:Drivers/STM32L4xx_HAL_Driver/Inc/stm32l4xx_ll_gpio.h ****   *         @arg @ref LL_GPIO_PIN_8
 716:Drivers/STM32L4xx_HAL_Driver/Inc/stm32l4xx_ll_gpio.h ****   *         @arg @ref LL_GPIO_PIN_9
 717:Drivers/STM32L4xx_HAL_Driver/Inc/stm32l4xx_ll_gpio.h ****   *         @arg @ref LL_GPIO_PIN_10
 718:Drivers/STM32L4xx_HAL_Driver/Inc/stm32l4xx_ll_gpio.h ****   *         @arg @ref LL_GPIO_PIN_11
 719:Drivers/STM32L4xx_HAL_Driver/Inc/stm32l4xx_ll_gpio.h ****   *         @arg @ref LL_GPIO_PIN_12
 720:Drivers/STM32L4xx_HAL_Driver/Inc/stm32l4xx_ll_gpio.h ****   *         @arg @ref LL_GPIO_PIN_13
 721:Drivers/STM32L4xx_HAL_Driver/Inc/stm32l4xx_ll_gpio.h ****   *         @arg @ref LL_GPIO_PIN_14
ARM GAS  /tmp/cca8Fq5p.s 			page 15


 722:Drivers/STM32L4xx_HAL_Driver/Inc/stm32l4xx_ll_gpio.h ****   *         @arg @ref LL_GPIO_PIN_15
 723:Drivers/STM32L4xx_HAL_Driver/Inc/stm32l4xx_ll_gpio.h ****   *         @arg @ref LL_GPIO_PIN_ALL
 724:Drivers/STM32L4xx_HAL_Driver/Inc/stm32l4xx_ll_gpio.h ****   * @retval None
 725:Drivers/STM32L4xx_HAL_Driver/Inc/stm32l4xx_ll_gpio.h ****   */
 726:Drivers/STM32L4xx_HAL_Driver/Inc/stm32l4xx_ll_gpio.h **** __STATIC_INLINE void LL_GPIO_EnablePinAnalogControl(GPIO_TypeDef *GPIOx, uint32_t PinMask)
 727:Drivers/STM32L4xx_HAL_Driver/Inc/stm32l4xx_ll_gpio.h **** {
 728:Drivers/STM32L4xx_HAL_Driver/Inc/stm32l4xx_ll_gpio.h ****   SET_BIT(GPIOx->ASCR, PinMask);
 729:Drivers/STM32L4xx_HAL_Driver/Inc/stm32l4xx_ll_gpio.h **** }
 730:Drivers/STM32L4xx_HAL_Driver/Inc/stm32l4xx_ll_gpio.h **** 
 731:Drivers/STM32L4xx_HAL_Driver/Inc/stm32l4xx_ll_gpio.h **** /**
 732:Drivers/STM32L4xx_HAL_Driver/Inc/stm32l4xx_ll_gpio.h ****   * @brief  Disconnect analog switch to ADC input of several pins for a dedicated port.
 733:Drivers/STM32L4xx_HAL_Driver/Inc/stm32l4xx_ll_gpio.h ****   * @rmtoll ASCR         ASCy          LL_GPIO_DisablePinAnalogControl
 734:Drivers/STM32L4xx_HAL_Driver/Inc/stm32l4xx_ll_gpio.h ****   * @param  GPIOx GPIO Port
 735:Drivers/STM32L4xx_HAL_Driver/Inc/stm32l4xx_ll_gpio.h ****   * @param  PinMask This parameter can be a combination of the following values:
 736:Drivers/STM32L4xx_HAL_Driver/Inc/stm32l4xx_ll_gpio.h ****   *         @arg @ref LL_GPIO_PIN_0
 737:Drivers/STM32L4xx_HAL_Driver/Inc/stm32l4xx_ll_gpio.h ****   *         @arg @ref LL_GPIO_PIN_1
 738:Drivers/STM32L4xx_HAL_Driver/Inc/stm32l4xx_ll_gpio.h ****   *         @arg @ref LL_GPIO_PIN_2
 739:Drivers/STM32L4xx_HAL_Driver/Inc/stm32l4xx_ll_gpio.h ****   *         @arg @ref LL_GPIO_PIN_3
 740:Drivers/STM32L4xx_HAL_Driver/Inc/stm32l4xx_ll_gpio.h ****   *         @arg @ref LL_GPIO_PIN_4
 741:Drivers/STM32L4xx_HAL_Driver/Inc/stm32l4xx_ll_gpio.h ****   *         @arg @ref LL_GPIO_PIN_5
 742:Drivers/STM32L4xx_HAL_Driver/Inc/stm32l4xx_ll_gpio.h ****   *         @arg @ref LL_GPIO_PIN_6
 743:Drivers/STM32L4xx_HAL_Driver/Inc/stm32l4xx_ll_gpio.h ****   *         @arg @ref LL_GPIO_PIN_7
 744:Drivers/STM32L4xx_HAL_Driver/Inc/stm32l4xx_ll_gpio.h ****   *         @arg @ref LL_GPIO_PIN_8
 745:Drivers/STM32L4xx_HAL_Driver/Inc/stm32l4xx_ll_gpio.h ****   *         @arg @ref LL_GPIO_PIN_9
 746:Drivers/STM32L4xx_HAL_Driver/Inc/stm32l4xx_ll_gpio.h ****   *         @arg @ref LL_GPIO_PIN_10
 747:Drivers/STM32L4xx_HAL_Driver/Inc/stm32l4xx_ll_gpio.h ****   *         @arg @ref LL_GPIO_PIN_11
 748:Drivers/STM32L4xx_HAL_Driver/Inc/stm32l4xx_ll_gpio.h ****   *         @arg @ref LL_GPIO_PIN_12
 749:Drivers/STM32L4xx_HAL_Driver/Inc/stm32l4xx_ll_gpio.h ****   *         @arg @ref LL_GPIO_PIN_13
 750:Drivers/STM32L4xx_HAL_Driver/Inc/stm32l4xx_ll_gpio.h ****   *         @arg @ref LL_GPIO_PIN_14
 751:Drivers/STM32L4xx_HAL_Driver/Inc/stm32l4xx_ll_gpio.h ****   *         @arg @ref LL_GPIO_PIN_15
 752:Drivers/STM32L4xx_HAL_Driver/Inc/stm32l4xx_ll_gpio.h ****   *         @arg @ref LL_GPIO_PIN_ALL
 753:Drivers/STM32L4xx_HAL_Driver/Inc/stm32l4xx_ll_gpio.h ****   * @retval None
 754:Drivers/STM32L4xx_HAL_Driver/Inc/stm32l4xx_ll_gpio.h ****   */
 755:Drivers/STM32L4xx_HAL_Driver/Inc/stm32l4xx_ll_gpio.h **** __STATIC_INLINE void LL_GPIO_DisablePinAnalogControl(GPIO_TypeDef *GPIOx, uint32_t PinMask)
 756:Drivers/STM32L4xx_HAL_Driver/Inc/stm32l4xx_ll_gpio.h **** {
 757:Drivers/STM32L4xx_HAL_Driver/Inc/stm32l4xx_ll_gpio.h ****   CLEAR_BIT(GPIOx->ASCR, PinMask);
 758:Drivers/STM32L4xx_HAL_Driver/Inc/stm32l4xx_ll_gpio.h **** }
 759:Drivers/STM32L4xx_HAL_Driver/Inc/stm32l4xx_ll_gpio.h **** #endif /* GPIO_ASCR_ASC0 */
 760:Drivers/STM32L4xx_HAL_Driver/Inc/stm32l4xx_ll_gpio.h **** 
 761:Drivers/STM32L4xx_HAL_Driver/Inc/stm32l4xx_ll_gpio.h **** /**
 762:Drivers/STM32L4xx_HAL_Driver/Inc/stm32l4xx_ll_gpio.h ****   * @brief  Lock configuration of several pins for a dedicated port.
 763:Drivers/STM32L4xx_HAL_Driver/Inc/stm32l4xx_ll_gpio.h ****   * @note   When the lock sequence has been applied on a port bit, the
 764:Drivers/STM32L4xx_HAL_Driver/Inc/stm32l4xx_ll_gpio.h ****   *         value of this port bit can no longer be modified until the
 765:Drivers/STM32L4xx_HAL_Driver/Inc/stm32l4xx_ll_gpio.h ****   *         next reset.
 766:Drivers/STM32L4xx_HAL_Driver/Inc/stm32l4xx_ll_gpio.h ****   * @note   Each lock bit freezes a specific configuration register
 767:Drivers/STM32L4xx_HAL_Driver/Inc/stm32l4xx_ll_gpio.h ****   *         (control and alternate function registers).
 768:Drivers/STM32L4xx_HAL_Driver/Inc/stm32l4xx_ll_gpio.h ****   * @rmtoll LCKR         LCKK          LL_GPIO_LockPin
 769:Drivers/STM32L4xx_HAL_Driver/Inc/stm32l4xx_ll_gpio.h ****   * @param  GPIOx GPIO Port
 770:Drivers/STM32L4xx_HAL_Driver/Inc/stm32l4xx_ll_gpio.h ****   * @param  PinMask This parameter can be a combination of the following values:
 771:Drivers/STM32L4xx_HAL_Driver/Inc/stm32l4xx_ll_gpio.h ****   *         @arg @ref LL_GPIO_PIN_0
 772:Drivers/STM32L4xx_HAL_Driver/Inc/stm32l4xx_ll_gpio.h ****   *         @arg @ref LL_GPIO_PIN_1
 773:Drivers/STM32L4xx_HAL_Driver/Inc/stm32l4xx_ll_gpio.h ****   *         @arg @ref LL_GPIO_PIN_2
 774:Drivers/STM32L4xx_HAL_Driver/Inc/stm32l4xx_ll_gpio.h ****   *         @arg @ref LL_GPIO_PIN_3
 775:Drivers/STM32L4xx_HAL_Driver/Inc/stm32l4xx_ll_gpio.h ****   *         @arg @ref LL_GPIO_PIN_4
 776:Drivers/STM32L4xx_HAL_Driver/Inc/stm32l4xx_ll_gpio.h ****   *         @arg @ref LL_GPIO_PIN_5
 777:Drivers/STM32L4xx_HAL_Driver/Inc/stm32l4xx_ll_gpio.h ****   *         @arg @ref LL_GPIO_PIN_6
 778:Drivers/STM32L4xx_HAL_Driver/Inc/stm32l4xx_ll_gpio.h ****   *         @arg @ref LL_GPIO_PIN_7
ARM GAS  /tmp/cca8Fq5p.s 			page 16


 779:Drivers/STM32L4xx_HAL_Driver/Inc/stm32l4xx_ll_gpio.h ****   *         @arg @ref LL_GPIO_PIN_8
 780:Drivers/STM32L4xx_HAL_Driver/Inc/stm32l4xx_ll_gpio.h ****   *         @arg @ref LL_GPIO_PIN_9
 781:Drivers/STM32L4xx_HAL_Driver/Inc/stm32l4xx_ll_gpio.h ****   *         @arg @ref LL_GPIO_PIN_10
 782:Drivers/STM32L4xx_HAL_Driver/Inc/stm32l4xx_ll_gpio.h ****   *         @arg @ref LL_GPIO_PIN_11
 783:Drivers/STM32L4xx_HAL_Driver/Inc/stm32l4xx_ll_gpio.h ****   *         @arg @ref LL_GPIO_PIN_12
 784:Drivers/STM32L4xx_HAL_Driver/Inc/stm32l4xx_ll_gpio.h ****   *         @arg @ref LL_GPIO_PIN_13
 785:Drivers/STM32L4xx_HAL_Driver/Inc/stm32l4xx_ll_gpio.h ****   *         @arg @ref LL_GPIO_PIN_14
 786:Drivers/STM32L4xx_HAL_Driver/Inc/stm32l4xx_ll_gpio.h ****   *         @arg @ref LL_GPIO_PIN_15
 787:Drivers/STM32L4xx_HAL_Driver/Inc/stm32l4xx_ll_gpio.h ****   *         @arg @ref LL_GPIO_PIN_ALL
 788:Drivers/STM32L4xx_HAL_Driver/Inc/stm32l4xx_ll_gpio.h ****   * @retval None
 789:Drivers/STM32L4xx_HAL_Driver/Inc/stm32l4xx_ll_gpio.h ****   */
 790:Drivers/STM32L4xx_HAL_Driver/Inc/stm32l4xx_ll_gpio.h **** __STATIC_INLINE void LL_GPIO_LockPin(GPIO_TypeDef *GPIOx, uint32_t PinMask)
 791:Drivers/STM32L4xx_HAL_Driver/Inc/stm32l4xx_ll_gpio.h **** {
 792:Drivers/STM32L4xx_HAL_Driver/Inc/stm32l4xx_ll_gpio.h ****   __IO uint32_t temp;
 793:Drivers/STM32L4xx_HAL_Driver/Inc/stm32l4xx_ll_gpio.h ****   WRITE_REG(GPIOx->LCKR, GPIO_LCKR_LCKK | PinMask);
 794:Drivers/STM32L4xx_HAL_Driver/Inc/stm32l4xx_ll_gpio.h ****   WRITE_REG(GPIOx->LCKR, PinMask);
 795:Drivers/STM32L4xx_HAL_Driver/Inc/stm32l4xx_ll_gpio.h ****   WRITE_REG(GPIOx->LCKR, GPIO_LCKR_LCKK | PinMask);
 796:Drivers/STM32L4xx_HAL_Driver/Inc/stm32l4xx_ll_gpio.h ****   temp = READ_REG(GPIOx->LCKR);
 797:Drivers/STM32L4xx_HAL_Driver/Inc/stm32l4xx_ll_gpio.h ****   (void) temp;
 798:Drivers/STM32L4xx_HAL_Driver/Inc/stm32l4xx_ll_gpio.h **** }
 799:Drivers/STM32L4xx_HAL_Driver/Inc/stm32l4xx_ll_gpio.h **** 
 800:Drivers/STM32L4xx_HAL_Driver/Inc/stm32l4xx_ll_gpio.h **** /**
 801:Drivers/STM32L4xx_HAL_Driver/Inc/stm32l4xx_ll_gpio.h ****   * @brief  Return 1 if all pins passed as parameter, of a dedicated port, are locked. else Return 
 802:Drivers/STM32L4xx_HAL_Driver/Inc/stm32l4xx_ll_gpio.h ****   * @rmtoll LCKR         LCKy          LL_GPIO_IsPinLocked
 803:Drivers/STM32L4xx_HAL_Driver/Inc/stm32l4xx_ll_gpio.h ****   * @param  GPIOx GPIO Port
 804:Drivers/STM32L4xx_HAL_Driver/Inc/stm32l4xx_ll_gpio.h ****   * @param  PinMask This parameter can be a combination of the following values:
 805:Drivers/STM32L4xx_HAL_Driver/Inc/stm32l4xx_ll_gpio.h ****   *         @arg @ref LL_GPIO_PIN_0
 806:Drivers/STM32L4xx_HAL_Driver/Inc/stm32l4xx_ll_gpio.h ****   *         @arg @ref LL_GPIO_PIN_1
 807:Drivers/STM32L4xx_HAL_Driver/Inc/stm32l4xx_ll_gpio.h ****   *         @arg @ref LL_GPIO_PIN_2
 808:Drivers/STM32L4xx_HAL_Driver/Inc/stm32l4xx_ll_gpio.h ****   *         @arg @ref LL_GPIO_PIN_3
 809:Drivers/STM32L4xx_HAL_Driver/Inc/stm32l4xx_ll_gpio.h ****   *         @arg @ref LL_GPIO_PIN_4
 810:Drivers/STM32L4xx_HAL_Driver/Inc/stm32l4xx_ll_gpio.h ****   *         @arg @ref LL_GPIO_PIN_5
 811:Drivers/STM32L4xx_HAL_Driver/Inc/stm32l4xx_ll_gpio.h ****   *         @arg @ref LL_GPIO_PIN_6
 812:Drivers/STM32L4xx_HAL_Driver/Inc/stm32l4xx_ll_gpio.h ****   *         @arg @ref LL_GPIO_PIN_7
 813:Drivers/STM32L4xx_HAL_Driver/Inc/stm32l4xx_ll_gpio.h ****   *         @arg @ref LL_GPIO_PIN_8
 814:Drivers/STM32L4xx_HAL_Driver/Inc/stm32l4xx_ll_gpio.h ****   *         @arg @ref LL_GPIO_PIN_9
 815:Drivers/STM32L4xx_HAL_Driver/Inc/stm32l4xx_ll_gpio.h ****   *         @arg @ref LL_GPIO_PIN_10
 816:Drivers/STM32L4xx_HAL_Driver/Inc/stm32l4xx_ll_gpio.h ****   *         @arg @ref LL_GPIO_PIN_11
 817:Drivers/STM32L4xx_HAL_Driver/Inc/stm32l4xx_ll_gpio.h ****   *         @arg @ref LL_GPIO_PIN_12
 818:Drivers/STM32L4xx_HAL_Driver/Inc/stm32l4xx_ll_gpio.h ****   *         @arg @ref LL_GPIO_PIN_13
 819:Drivers/STM32L4xx_HAL_Driver/Inc/stm32l4xx_ll_gpio.h ****   *         @arg @ref LL_GPIO_PIN_14
 820:Drivers/STM32L4xx_HAL_Driver/Inc/stm32l4xx_ll_gpio.h ****   *         @arg @ref LL_GPIO_PIN_15
 821:Drivers/STM32L4xx_HAL_Driver/Inc/stm32l4xx_ll_gpio.h ****   *         @arg @ref LL_GPIO_PIN_ALL
 822:Drivers/STM32L4xx_HAL_Driver/Inc/stm32l4xx_ll_gpio.h ****   * @retval State of bit (1 or 0).
 823:Drivers/STM32L4xx_HAL_Driver/Inc/stm32l4xx_ll_gpio.h ****   */
 824:Drivers/STM32L4xx_HAL_Driver/Inc/stm32l4xx_ll_gpio.h **** __STATIC_INLINE uint32_t LL_GPIO_IsPinLocked(GPIO_TypeDef *GPIOx, uint32_t PinMask)
 825:Drivers/STM32L4xx_HAL_Driver/Inc/stm32l4xx_ll_gpio.h **** {
 826:Drivers/STM32L4xx_HAL_Driver/Inc/stm32l4xx_ll_gpio.h ****   return (READ_BIT(GPIOx->LCKR, PinMask) == (PinMask));
 827:Drivers/STM32L4xx_HAL_Driver/Inc/stm32l4xx_ll_gpio.h **** }
 828:Drivers/STM32L4xx_HAL_Driver/Inc/stm32l4xx_ll_gpio.h **** 
 829:Drivers/STM32L4xx_HAL_Driver/Inc/stm32l4xx_ll_gpio.h **** /**
 830:Drivers/STM32L4xx_HAL_Driver/Inc/stm32l4xx_ll_gpio.h ****   * @brief  Return 1 if one of the pin of a dedicated port is locked. else return 0.
 831:Drivers/STM32L4xx_HAL_Driver/Inc/stm32l4xx_ll_gpio.h ****   * @rmtoll LCKR         LCKK          LL_GPIO_IsAnyPinLocked
 832:Drivers/STM32L4xx_HAL_Driver/Inc/stm32l4xx_ll_gpio.h ****   * @param  GPIOx GPIO Port
 833:Drivers/STM32L4xx_HAL_Driver/Inc/stm32l4xx_ll_gpio.h ****   * @retval State of bit (1 or 0).
 834:Drivers/STM32L4xx_HAL_Driver/Inc/stm32l4xx_ll_gpio.h ****   */
 835:Drivers/STM32L4xx_HAL_Driver/Inc/stm32l4xx_ll_gpio.h **** __STATIC_INLINE uint32_t LL_GPIO_IsAnyPinLocked(GPIO_TypeDef *GPIOx)
ARM GAS  /tmp/cca8Fq5p.s 			page 17


 836:Drivers/STM32L4xx_HAL_Driver/Inc/stm32l4xx_ll_gpio.h **** {
 837:Drivers/STM32L4xx_HAL_Driver/Inc/stm32l4xx_ll_gpio.h ****   return (READ_BIT(GPIOx->LCKR, GPIO_LCKR_LCKK) == (GPIO_LCKR_LCKK));
 838:Drivers/STM32L4xx_HAL_Driver/Inc/stm32l4xx_ll_gpio.h **** }
 839:Drivers/STM32L4xx_HAL_Driver/Inc/stm32l4xx_ll_gpio.h **** 
 840:Drivers/STM32L4xx_HAL_Driver/Inc/stm32l4xx_ll_gpio.h **** /**
 841:Drivers/STM32L4xx_HAL_Driver/Inc/stm32l4xx_ll_gpio.h ****   * @}
 842:Drivers/STM32L4xx_HAL_Driver/Inc/stm32l4xx_ll_gpio.h ****   */
 843:Drivers/STM32L4xx_HAL_Driver/Inc/stm32l4xx_ll_gpio.h **** 
 844:Drivers/STM32L4xx_HAL_Driver/Inc/stm32l4xx_ll_gpio.h **** /** @defgroup GPIO_LL_EF_Data_Access Data Access
 845:Drivers/STM32L4xx_HAL_Driver/Inc/stm32l4xx_ll_gpio.h ****   * @{
 846:Drivers/STM32L4xx_HAL_Driver/Inc/stm32l4xx_ll_gpio.h ****   */
 847:Drivers/STM32L4xx_HAL_Driver/Inc/stm32l4xx_ll_gpio.h **** 
 848:Drivers/STM32L4xx_HAL_Driver/Inc/stm32l4xx_ll_gpio.h **** /**
 849:Drivers/STM32L4xx_HAL_Driver/Inc/stm32l4xx_ll_gpio.h ****   * @brief  Return full input data register value for a dedicated port.
 850:Drivers/STM32L4xx_HAL_Driver/Inc/stm32l4xx_ll_gpio.h ****   * @rmtoll IDR          IDy           LL_GPIO_ReadInputPort
 851:Drivers/STM32L4xx_HAL_Driver/Inc/stm32l4xx_ll_gpio.h ****   * @param  GPIOx GPIO Port
 852:Drivers/STM32L4xx_HAL_Driver/Inc/stm32l4xx_ll_gpio.h ****   * @retval Input data register value of port
 853:Drivers/STM32L4xx_HAL_Driver/Inc/stm32l4xx_ll_gpio.h ****   */
 854:Drivers/STM32L4xx_HAL_Driver/Inc/stm32l4xx_ll_gpio.h **** __STATIC_INLINE uint32_t LL_GPIO_ReadInputPort(GPIO_TypeDef *GPIOx)
 855:Drivers/STM32L4xx_HAL_Driver/Inc/stm32l4xx_ll_gpio.h **** {
 856:Drivers/STM32L4xx_HAL_Driver/Inc/stm32l4xx_ll_gpio.h ****   return (uint32_t)(READ_REG(GPIOx->IDR));
 857:Drivers/STM32L4xx_HAL_Driver/Inc/stm32l4xx_ll_gpio.h **** }
 858:Drivers/STM32L4xx_HAL_Driver/Inc/stm32l4xx_ll_gpio.h **** 
 859:Drivers/STM32L4xx_HAL_Driver/Inc/stm32l4xx_ll_gpio.h **** /**
 860:Drivers/STM32L4xx_HAL_Driver/Inc/stm32l4xx_ll_gpio.h ****   * @brief  Return if input data level for several pins of dedicated port is high or low.
 861:Drivers/STM32L4xx_HAL_Driver/Inc/stm32l4xx_ll_gpio.h ****   * @rmtoll IDR          IDy           LL_GPIO_IsInputPinSet
 862:Drivers/STM32L4xx_HAL_Driver/Inc/stm32l4xx_ll_gpio.h ****   * @param  GPIOx GPIO Port
 863:Drivers/STM32L4xx_HAL_Driver/Inc/stm32l4xx_ll_gpio.h ****   * @param  PinMask This parameter can be a combination of the following values:
 864:Drivers/STM32L4xx_HAL_Driver/Inc/stm32l4xx_ll_gpio.h ****   *         @arg @ref LL_GPIO_PIN_0
 865:Drivers/STM32L4xx_HAL_Driver/Inc/stm32l4xx_ll_gpio.h ****   *         @arg @ref LL_GPIO_PIN_1
 866:Drivers/STM32L4xx_HAL_Driver/Inc/stm32l4xx_ll_gpio.h ****   *         @arg @ref LL_GPIO_PIN_2
 867:Drivers/STM32L4xx_HAL_Driver/Inc/stm32l4xx_ll_gpio.h ****   *         @arg @ref LL_GPIO_PIN_3
 868:Drivers/STM32L4xx_HAL_Driver/Inc/stm32l4xx_ll_gpio.h ****   *         @arg @ref LL_GPIO_PIN_4
 869:Drivers/STM32L4xx_HAL_Driver/Inc/stm32l4xx_ll_gpio.h ****   *         @arg @ref LL_GPIO_PIN_5
 870:Drivers/STM32L4xx_HAL_Driver/Inc/stm32l4xx_ll_gpio.h ****   *         @arg @ref LL_GPIO_PIN_6
 871:Drivers/STM32L4xx_HAL_Driver/Inc/stm32l4xx_ll_gpio.h ****   *         @arg @ref LL_GPIO_PIN_7
 872:Drivers/STM32L4xx_HAL_Driver/Inc/stm32l4xx_ll_gpio.h ****   *         @arg @ref LL_GPIO_PIN_8
 873:Drivers/STM32L4xx_HAL_Driver/Inc/stm32l4xx_ll_gpio.h ****   *         @arg @ref LL_GPIO_PIN_9
 874:Drivers/STM32L4xx_HAL_Driver/Inc/stm32l4xx_ll_gpio.h ****   *         @arg @ref LL_GPIO_PIN_10
 875:Drivers/STM32L4xx_HAL_Driver/Inc/stm32l4xx_ll_gpio.h ****   *         @arg @ref LL_GPIO_PIN_11
 876:Drivers/STM32L4xx_HAL_Driver/Inc/stm32l4xx_ll_gpio.h ****   *         @arg @ref LL_GPIO_PIN_12
 877:Drivers/STM32L4xx_HAL_Driver/Inc/stm32l4xx_ll_gpio.h ****   *         @arg @ref LL_GPIO_PIN_13
 878:Drivers/STM32L4xx_HAL_Driver/Inc/stm32l4xx_ll_gpio.h ****   *         @arg @ref LL_GPIO_PIN_14
 879:Drivers/STM32L4xx_HAL_Driver/Inc/stm32l4xx_ll_gpio.h ****   *         @arg @ref LL_GPIO_PIN_15
 880:Drivers/STM32L4xx_HAL_Driver/Inc/stm32l4xx_ll_gpio.h ****   *         @arg @ref LL_GPIO_PIN_ALL
 881:Drivers/STM32L4xx_HAL_Driver/Inc/stm32l4xx_ll_gpio.h ****   * @retval State of bit (1 or 0).
 882:Drivers/STM32L4xx_HAL_Driver/Inc/stm32l4xx_ll_gpio.h ****   */
 883:Drivers/STM32L4xx_HAL_Driver/Inc/stm32l4xx_ll_gpio.h **** __STATIC_INLINE uint32_t LL_GPIO_IsInputPinSet(GPIO_TypeDef *GPIOx, uint32_t PinMask)
 884:Drivers/STM32L4xx_HAL_Driver/Inc/stm32l4xx_ll_gpio.h **** {
 885:Drivers/STM32L4xx_HAL_Driver/Inc/stm32l4xx_ll_gpio.h ****   return (READ_BIT(GPIOx->IDR, PinMask) == (PinMask));
 886:Drivers/STM32L4xx_HAL_Driver/Inc/stm32l4xx_ll_gpio.h **** }
 887:Drivers/STM32L4xx_HAL_Driver/Inc/stm32l4xx_ll_gpio.h **** 
 888:Drivers/STM32L4xx_HAL_Driver/Inc/stm32l4xx_ll_gpio.h **** /**
 889:Drivers/STM32L4xx_HAL_Driver/Inc/stm32l4xx_ll_gpio.h ****   * @brief  Write output data register for the port.
 890:Drivers/STM32L4xx_HAL_Driver/Inc/stm32l4xx_ll_gpio.h ****   * @rmtoll ODR          ODy           LL_GPIO_WriteOutputPort
 891:Drivers/STM32L4xx_HAL_Driver/Inc/stm32l4xx_ll_gpio.h ****   * @param  GPIOx GPIO Port
 892:Drivers/STM32L4xx_HAL_Driver/Inc/stm32l4xx_ll_gpio.h ****   * @param  PortValue Level value for each pin of the port
ARM GAS  /tmp/cca8Fq5p.s 			page 18


 893:Drivers/STM32L4xx_HAL_Driver/Inc/stm32l4xx_ll_gpio.h ****   * @retval None
 894:Drivers/STM32L4xx_HAL_Driver/Inc/stm32l4xx_ll_gpio.h ****   */
 895:Drivers/STM32L4xx_HAL_Driver/Inc/stm32l4xx_ll_gpio.h **** __STATIC_INLINE void LL_GPIO_WriteOutputPort(GPIO_TypeDef *GPIOx, uint32_t PortValue)
 896:Drivers/STM32L4xx_HAL_Driver/Inc/stm32l4xx_ll_gpio.h **** {
 897:Drivers/STM32L4xx_HAL_Driver/Inc/stm32l4xx_ll_gpio.h ****   WRITE_REG(GPIOx->ODR, PortValue);
 898:Drivers/STM32L4xx_HAL_Driver/Inc/stm32l4xx_ll_gpio.h **** }
 899:Drivers/STM32L4xx_HAL_Driver/Inc/stm32l4xx_ll_gpio.h **** 
 900:Drivers/STM32L4xx_HAL_Driver/Inc/stm32l4xx_ll_gpio.h **** /**
 901:Drivers/STM32L4xx_HAL_Driver/Inc/stm32l4xx_ll_gpio.h ****   * @brief  Return full output data register value for a dedicated port.
 902:Drivers/STM32L4xx_HAL_Driver/Inc/stm32l4xx_ll_gpio.h ****   * @rmtoll ODR          ODy           LL_GPIO_ReadOutputPort
 903:Drivers/STM32L4xx_HAL_Driver/Inc/stm32l4xx_ll_gpio.h ****   * @param  GPIOx GPIO Port
 904:Drivers/STM32L4xx_HAL_Driver/Inc/stm32l4xx_ll_gpio.h ****   * @retval Output data register value of port
 905:Drivers/STM32L4xx_HAL_Driver/Inc/stm32l4xx_ll_gpio.h ****   */
 906:Drivers/STM32L4xx_HAL_Driver/Inc/stm32l4xx_ll_gpio.h **** __STATIC_INLINE uint32_t LL_GPIO_ReadOutputPort(GPIO_TypeDef *GPIOx)
 907:Drivers/STM32L4xx_HAL_Driver/Inc/stm32l4xx_ll_gpio.h **** {
 908:Drivers/STM32L4xx_HAL_Driver/Inc/stm32l4xx_ll_gpio.h ****   return (uint32_t)(READ_REG(GPIOx->ODR));
 909:Drivers/STM32L4xx_HAL_Driver/Inc/stm32l4xx_ll_gpio.h **** }
 910:Drivers/STM32L4xx_HAL_Driver/Inc/stm32l4xx_ll_gpio.h **** 
 911:Drivers/STM32L4xx_HAL_Driver/Inc/stm32l4xx_ll_gpio.h **** /**
 912:Drivers/STM32L4xx_HAL_Driver/Inc/stm32l4xx_ll_gpio.h ****   * @brief  Return if input data level for several pins of dedicated port is high or low.
 913:Drivers/STM32L4xx_HAL_Driver/Inc/stm32l4xx_ll_gpio.h ****   * @rmtoll ODR          ODy           LL_GPIO_IsOutputPinSet
 914:Drivers/STM32L4xx_HAL_Driver/Inc/stm32l4xx_ll_gpio.h ****   * @param  GPIOx GPIO Port
 915:Drivers/STM32L4xx_HAL_Driver/Inc/stm32l4xx_ll_gpio.h ****   * @param  PinMask This parameter can be a combination of the following values:
 916:Drivers/STM32L4xx_HAL_Driver/Inc/stm32l4xx_ll_gpio.h ****   *         @arg @ref LL_GPIO_PIN_0
 917:Drivers/STM32L4xx_HAL_Driver/Inc/stm32l4xx_ll_gpio.h ****   *         @arg @ref LL_GPIO_PIN_1
 918:Drivers/STM32L4xx_HAL_Driver/Inc/stm32l4xx_ll_gpio.h ****   *         @arg @ref LL_GPIO_PIN_2
 919:Drivers/STM32L4xx_HAL_Driver/Inc/stm32l4xx_ll_gpio.h ****   *         @arg @ref LL_GPIO_PIN_3
 920:Drivers/STM32L4xx_HAL_Driver/Inc/stm32l4xx_ll_gpio.h ****   *         @arg @ref LL_GPIO_PIN_4
 921:Drivers/STM32L4xx_HAL_Driver/Inc/stm32l4xx_ll_gpio.h ****   *         @arg @ref LL_GPIO_PIN_5
 922:Drivers/STM32L4xx_HAL_Driver/Inc/stm32l4xx_ll_gpio.h ****   *         @arg @ref LL_GPIO_PIN_6
 923:Drivers/STM32L4xx_HAL_Driver/Inc/stm32l4xx_ll_gpio.h ****   *         @arg @ref LL_GPIO_PIN_7
 924:Drivers/STM32L4xx_HAL_Driver/Inc/stm32l4xx_ll_gpio.h ****   *         @arg @ref LL_GPIO_PIN_8
 925:Drivers/STM32L4xx_HAL_Driver/Inc/stm32l4xx_ll_gpio.h ****   *         @arg @ref LL_GPIO_PIN_9
 926:Drivers/STM32L4xx_HAL_Driver/Inc/stm32l4xx_ll_gpio.h ****   *         @arg @ref LL_GPIO_PIN_10
 927:Drivers/STM32L4xx_HAL_Driver/Inc/stm32l4xx_ll_gpio.h ****   *         @arg @ref LL_GPIO_PIN_11
 928:Drivers/STM32L4xx_HAL_Driver/Inc/stm32l4xx_ll_gpio.h ****   *         @arg @ref LL_GPIO_PIN_12
 929:Drivers/STM32L4xx_HAL_Driver/Inc/stm32l4xx_ll_gpio.h ****   *         @arg @ref LL_GPIO_PIN_13
 930:Drivers/STM32L4xx_HAL_Driver/Inc/stm32l4xx_ll_gpio.h ****   *         @arg @ref LL_GPIO_PIN_14
 931:Drivers/STM32L4xx_HAL_Driver/Inc/stm32l4xx_ll_gpio.h ****   *         @arg @ref LL_GPIO_PIN_15
 932:Drivers/STM32L4xx_HAL_Driver/Inc/stm32l4xx_ll_gpio.h ****   *         @arg @ref LL_GPIO_PIN_ALL
 933:Drivers/STM32L4xx_HAL_Driver/Inc/stm32l4xx_ll_gpio.h ****   * @retval State of bit (1 or 0).
 934:Drivers/STM32L4xx_HAL_Driver/Inc/stm32l4xx_ll_gpio.h ****   */
 935:Drivers/STM32L4xx_HAL_Driver/Inc/stm32l4xx_ll_gpio.h **** __STATIC_INLINE uint32_t LL_GPIO_IsOutputPinSet(GPIO_TypeDef *GPIOx, uint32_t PinMask)
 936:Drivers/STM32L4xx_HAL_Driver/Inc/stm32l4xx_ll_gpio.h **** {
 937:Drivers/STM32L4xx_HAL_Driver/Inc/stm32l4xx_ll_gpio.h ****   return (READ_BIT(GPIOx->ODR, PinMask) == (PinMask));
  46              		.loc 2 937 0
  47 0004 4FF09044 		mov	r4, #1207959552
  48 0008 6569     		ldr	r5, [r4, #20]
  49 000a 05F47F45 		and	r5, r5, #65280
  50 000e B5F57F4F 		cmp	r5, #65280
  51 0012 14BF     		ite	ne
  52 0014 0025     		movne	r5, #0
  53 0016 0125     		moveq	r5, #1
  54              	.LVL2:
  55              	.LBE45:
  56              	.LBE44:
  57              	.LBB46:
ARM GAS  /tmp/cca8Fq5p.s 			page 19


  58              	.LBB47:
 938:Drivers/STM32L4xx_HAL_Driver/Inc/stm32l4xx_ll_gpio.h **** }
 939:Drivers/STM32L4xx_HAL_Driver/Inc/stm32l4xx_ll_gpio.h **** 
 940:Drivers/STM32L4xx_HAL_Driver/Inc/stm32l4xx_ll_gpio.h **** /**
 941:Drivers/STM32L4xx_HAL_Driver/Inc/stm32l4xx_ll_gpio.h ****   * @brief  Set several pins to high level on dedicated gpio port.
 942:Drivers/STM32L4xx_HAL_Driver/Inc/stm32l4xx_ll_gpio.h ****   * @rmtoll BSRR         BSy           LL_GPIO_SetOutputPin
 943:Drivers/STM32L4xx_HAL_Driver/Inc/stm32l4xx_ll_gpio.h ****   * @param  GPIOx GPIO Port
 944:Drivers/STM32L4xx_HAL_Driver/Inc/stm32l4xx_ll_gpio.h ****   * @param  PinMask This parameter can be a combination of the following values:
 945:Drivers/STM32L4xx_HAL_Driver/Inc/stm32l4xx_ll_gpio.h ****   *         @arg @ref LL_GPIO_PIN_0
 946:Drivers/STM32L4xx_HAL_Driver/Inc/stm32l4xx_ll_gpio.h ****   *         @arg @ref LL_GPIO_PIN_1
 947:Drivers/STM32L4xx_HAL_Driver/Inc/stm32l4xx_ll_gpio.h ****   *         @arg @ref LL_GPIO_PIN_2
 948:Drivers/STM32L4xx_HAL_Driver/Inc/stm32l4xx_ll_gpio.h ****   *         @arg @ref LL_GPIO_PIN_3
 949:Drivers/STM32L4xx_HAL_Driver/Inc/stm32l4xx_ll_gpio.h ****   *         @arg @ref LL_GPIO_PIN_4
 950:Drivers/STM32L4xx_HAL_Driver/Inc/stm32l4xx_ll_gpio.h ****   *         @arg @ref LL_GPIO_PIN_5
 951:Drivers/STM32L4xx_HAL_Driver/Inc/stm32l4xx_ll_gpio.h ****   *         @arg @ref LL_GPIO_PIN_6
 952:Drivers/STM32L4xx_HAL_Driver/Inc/stm32l4xx_ll_gpio.h ****   *         @arg @ref LL_GPIO_PIN_7
 953:Drivers/STM32L4xx_HAL_Driver/Inc/stm32l4xx_ll_gpio.h ****   *         @arg @ref LL_GPIO_PIN_8
 954:Drivers/STM32L4xx_HAL_Driver/Inc/stm32l4xx_ll_gpio.h ****   *         @arg @ref LL_GPIO_PIN_9
 955:Drivers/STM32L4xx_HAL_Driver/Inc/stm32l4xx_ll_gpio.h ****   *         @arg @ref LL_GPIO_PIN_10
 956:Drivers/STM32L4xx_HAL_Driver/Inc/stm32l4xx_ll_gpio.h ****   *         @arg @ref LL_GPIO_PIN_11
 957:Drivers/STM32L4xx_HAL_Driver/Inc/stm32l4xx_ll_gpio.h ****   *         @arg @ref LL_GPIO_PIN_12
 958:Drivers/STM32L4xx_HAL_Driver/Inc/stm32l4xx_ll_gpio.h ****   *         @arg @ref LL_GPIO_PIN_13
 959:Drivers/STM32L4xx_HAL_Driver/Inc/stm32l4xx_ll_gpio.h ****   *         @arg @ref LL_GPIO_PIN_14
 960:Drivers/STM32L4xx_HAL_Driver/Inc/stm32l4xx_ll_gpio.h ****   *         @arg @ref LL_GPIO_PIN_15
 961:Drivers/STM32L4xx_HAL_Driver/Inc/stm32l4xx_ll_gpio.h ****   *         @arg @ref LL_GPIO_PIN_ALL
 962:Drivers/STM32L4xx_HAL_Driver/Inc/stm32l4xx_ll_gpio.h ****   * @retval None
 963:Drivers/STM32L4xx_HAL_Driver/Inc/stm32l4xx_ll_gpio.h ****   */
 964:Drivers/STM32L4xx_HAL_Driver/Inc/stm32l4xx_ll_gpio.h **** __STATIC_INLINE void LL_GPIO_SetOutputPin(GPIO_TypeDef *GPIOx, uint32_t PinMask)
 965:Drivers/STM32L4xx_HAL_Driver/Inc/stm32l4xx_ll_gpio.h **** {
 966:Drivers/STM32L4xx_HAL_Driver/Inc/stm32l4xx_ll_gpio.h ****   WRITE_REG(GPIOx->BSRR, PinMask);
  59              		.loc 2 966 0
  60 0018 0B4B     		ldr	r3, .L3
  61 001a 0222     		movs	r2, #2
  62 001c 9A61     		str	r2, [r3, #24]
  63              	.LVL3:
  64              	.LBE47:
  65              	.LBE46:
  66              	.LBB48:
  67              	.LBB49:
 967:Drivers/STM32L4xx_HAL_Driver/Inc/stm32l4xx_ll_gpio.h **** }
 968:Drivers/STM32L4xx_HAL_Driver/Inc/stm32l4xx_ll_gpio.h **** 
 969:Drivers/STM32L4xx_HAL_Driver/Inc/stm32l4xx_ll_gpio.h **** /**
 970:Drivers/STM32L4xx_HAL_Driver/Inc/stm32l4xx_ll_gpio.h ****   * @brief  Set several pins to low level on dedicated gpio port.
 971:Drivers/STM32L4xx_HAL_Driver/Inc/stm32l4xx_ll_gpio.h ****   * @rmtoll BRR          BRy           LL_GPIO_ResetOutputPin
 972:Drivers/STM32L4xx_HAL_Driver/Inc/stm32l4xx_ll_gpio.h ****   * @param  GPIOx GPIO Port
 973:Drivers/STM32L4xx_HAL_Driver/Inc/stm32l4xx_ll_gpio.h ****   * @param  PinMask This parameter can be a combination of the following values:
 974:Drivers/STM32L4xx_HAL_Driver/Inc/stm32l4xx_ll_gpio.h ****   *         @arg @ref LL_GPIO_PIN_0
 975:Drivers/STM32L4xx_HAL_Driver/Inc/stm32l4xx_ll_gpio.h ****   *         @arg @ref LL_GPIO_PIN_1
 976:Drivers/STM32L4xx_HAL_Driver/Inc/stm32l4xx_ll_gpio.h ****   *         @arg @ref LL_GPIO_PIN_2
 977:Drivers/STM32L4xx_HAL_Driver/Inc/stm32l4xx_ll_gpio.h ****   *         @arg @ref LL_GPIO_PIN_3
 978:Drivers/STM32L4xx_HAL_Driver/Inc/stm32l4xx_ll_gpio.h ****   *         @arg @ref LL_GPIO_PIN_4
 979:Drivers/STM32L4xx_HAL_Driver/Inc/stm32l4xx_ll_gpio.h ****   *         @arg @ref LL_GPIO_PIN_5
 980:Drivers/STM32L4xx_HAL_Driver/Inc/stm32l4xx_ll_gpio.h ****   *         @arg @ref LL_GPIO_PIN_6
 981:Drivers/STM32L4xx_HAL_Driver/Inc/stm32l4xx_ll_gpio.h ****   *         @arg @ref LL_GPIO_PIN_7
 982:Drivers/STM32L4xx_HAL_Driver/Inc/stm32l4xx_ll_gpio.h ****   *         @arg @ref LL_GPIO_PIN_8
 983:Drivers/STM32L4xx_HAL_Driver/Inc/stm32l4xx_ll_gpio.h ****   *         @arg @ref LL_GPIO_PIN_9
 984:Drivers/STM32L4xx_HAL_Driver/Inc/stm32l4xx_ll_gpio.h ****   *         @arg @ref LL_GPIO_PIN_10
ARM GAS  /tmp/cca8Fq5p.s 			page 20


 985:Drivers/STM32L4xx_HAL_Driver/Inc/stm32l4xx_ll_gpio.h ****   *         @arg @ref LL_GPIO_PIN_11
 986:Drivers/STM32L4xx_HAL_Driver/Inc/stm32l4xx_ll_gpio.h ****   *         @arg @ref LL_GPIO_PIN_12
 987:Drivers/STM32L4xx_HAL_Driver/Inc/stm32l4xx_ll_gpio.h ****   *         @arg @ref LL_GPIO_PIN_13
 988:Drivers/STM32L4xx_HAL_Driver/Inc/stm32l4xx_ll_gpio.h ****   *         @arg @ref LL_GPIO_PIN_14
 989:Drivers/STM32L4xx_HAL_Driver/Inc/stm32l4xx_ll_gpio.h ****   *         @arg @ref LL_GPIO_PIN_15
 990:Drivers/STM32L4xx_HAL_Driver/Inc/stm32l4xx_ll_gpio.h ****   *         @arg @ref LL_GPIO_PIN_ALL
 991:Drivers/STM32L4xx_HAL_Driver/Inc/stm32l4xx_ll_gpio.h ****   * @retval None
 992:Drivers/STM32L4xx_HAL_Driver/Inc/stm32l4xx_ll_gpio.h ****   */
 993:Drivers/STM32L4xx_HAL_Driver/Inc/stm32l4xx_ll_gpio.h **** __STATIC_INLINE void LL_GPIO_ResetOutputPin(GPIO_TypeDef *GPIOx, uint32_t PinMask)
 994:Drivers/STM32L4xx_HAL_Driver/Inc/stm32l4xx_ll_gpio.h **** {
 995:Drivers/STM32L4xx_HAL_Driver/Inc/stm32l4xx_ll_gpio.h ****   WRITE_REG(GPIOx->BRR, PinMask);
  68              		.loc 2 995 0
  69 001e 0422     		movs	r2, #4
  70 0020 9A62     		str	r2, [r3, #40]
  71              	.LVL4:
  72              	.LBE49:
  73              	.LBE48:
  74              	.LBB50:
  75              	.LBB51:
  76 0022 4FF47F47 		mov	r7, #65280
  77 0026 A762     		str	r7, [r4, #40]
  78              	.LVL5:
  79              	.LBE51:
  80              	.LBE50:
  34:Src/lcd.c     **** 	uint32_t LED_values = LL_GPIO_IsOutputPinSet(LCD_data_port, LCD_data_pins);
  35:Src/lcd.c     **** 
  36:Src/lcd.c     **** 	LL_GPIO_SetOutputPin(LCD_RS_port, LCD_RS_pin);
  37:Src/lcd.c     **** 	LL_GPIO_ResetOutputPin(LCD_RW_port, LCD_RW_pin);
  38:Src/lcd.c     **** 	LL_GPIO_ResetOutputPin(LCD_data_port, LCD_data_pins);
  39:Src/lcd.c     **** 	LL_GPIO_SetOutputPin(LCD_data_port, buffer<<8);
  81              		.loc 1 39 0
  82 0028 0002     		lsls	r0, r0, #8
  83              	.LVL6:
  84              	.LBB52:
  85              	.LBB53:
 966:Drivers/STM32L4xx_HAL_Driver/Inc/stm32l4xx_ll_gpio.h **** }
  86              		.loc 2 966 0
  87 002a A061     		str	r0, [r4, #24]
  88              	.LVL7:
  89              	.LBE53:
  90              	.LBE52:
  91              	.LBB54:
  92              	.LBB55:
  93 002c DFF81C80 		ldr	r8, .L3+4
  94 0030 0126     		movs	r6, #1
  95 0032 C8F81860 		str	r6, [r8, #24]
  96              	.LVL8:
  97              	.LBE55:
  98              	.LBE54:
  40:Src/lcd.c     **** 
  41:Src/lcd.c     **** 	LL_GPIO_SetOutputPin(LCD_E_port, LCD_E_pin);
  42:Src/lcd.c     **** 	LL_mDelay(1);
  99              		.loc 1 42 0
 100 0036 3046     		mov	r0, r6
 101 0038 FFF7FEFF 		bl	LL_mDelay
 102              	.LVL9:
 103              	.LBB56:
ARM GAS  /tmp/cca8Fq5p.s 			page 21


 104              	.LBB57:
 105              		.loc 2 995 0
 106 003c C8F82860 		str	r6, [r8, #40]
 107              	.LVL10:
 108              	.LBE57:
 109              	.LBE56:
 110              	.LBB58:
 111              	.LBB59:
 112 0040 A762     		str	r7, [r4, #40]
 113              	.LVL11:
 114              	.LBE59:
 115              	.LBE58:
 116              	.LBB60:
 117              	.LBB61:
 966:Drivers/STM32L4xx_HAL_Driver/Inc/stm32l4xx_ll_gpio.h **** }
 118              		.loc 2 966 0
 119 0042 A561     		str	r5, [r4, #24]
 120              	.LVL12:
 121 0044 BDE8F081 		pop	{r4, r5, r6, r7, r8, pc}
 122              	.L4:
 123              		.align	2
 124              	.L3:
 125 0048 00040048 		.word	1207960576
 126 004c 001C0048 		.word	1207966720
 127              	.LBE61:
 128              	.LBE60:
 129              		.cfi_endproc
 130              	.LFE1425:
 132              		.section	.text.LCD_write_cmd,"ax",%progbits
 133              		.align	1
 134              		.global	LCD_write_cmd
 135              		.syntax unified
 136              		.thumb
 137              		.thumb_func
 138              		.fpu fpv4-sp-d16
 140              	LCD_write_cmd:
 141              	.LFB1426:
  43:Src/lcd.c     **** 	LL_GPIO_ResetOutputPin(LCD_E_port, LCD_E_pin);
  44:Src/lcd.c     **** 
  45:Src/lcd.c     **** 	LL_GPIO_ResetOutputPin(LCD_data_port, LCD_data_pins);
  46:Src/lcd.c     **** 	LL_GPIO_SetOutputPin(LCD_data_port, LED_values);
  47:Src/lcd.c     **** 	return;
  48:Src/lcd.c     **** }
  49:Src/lcd.c     **** 
  50:Src/lcd.c     **** /*send command to LCD screen*/
  51:Src/lcd.c     **** void LCD_write_cmd(int buffer){
 142              		.loc 1 51 0
 143              		.cfi_startproc
 144              		@ args = 0, pretend = 0, frame = 0
 145              		@ frame_needed = 0, uses_anonymous_args = 0
 146              	.LVL13:
 147 0000 10B5     		push	{r4, lr}
 148              	.LCFI1:
 149              		.cfi_def_cfa_offset 8
 150              		.cfi_offset 4, -8
 151              		.cfi_offset 14, -4
 152              	.LVL14:
ARM GAS  /tmp/cca8Fq5p.s 			page 22


 153              	.LBB62:
 154              	.LBB63:
 937:Drivers/STM32L4xx_HAL_Driver/Inc/stm32l4xx_ll_gpio.h **** }
 155              		.loc 2 937 0
 156 0002 4FF09043 		mov	r3, #1207959552
 157 0006 5C69     		ldr	r4, [r3, #20]
 158 0008 04F47F44 		and	r4, r4, #65280
 159 000c B4F57F4F 		cmp	r4, #65280
 160 0010 14BF     		ite	ne
 161 0012 0024     		movne	r4, #0
 162 0014 0124     		moveq	r4, #1
 163              	.LVL15:
 164              	.LBE63:
 165              	.LBE62:
 166              	.LBB64:
 167              	.LBB65:
 168              		.loc 2 995 0
 169 0016 114A     		ldr	r2, .L9
 170 0018 0221     		movs	r1, #2
 171 001a 9162     		str	r1, [r2, #40]
 172              	.LVL16:
 173              	.LBE65:
 174              	.LBE64:
 175              	.LBB66:
 176              	.LBB67:
 177 001c 0421     		movs	r1, #4
 178 001e 9162     		str	r1, [r2, #40]
 179              	.LVL17:
 180              	.LBE67:
 181              	.LBE66:
 182              	.LBB68:
 183              	.LBB69:
 184 0020 4FF47F42 		mov	r2, #65280
 185 0024 9A62     		str	r2, [r3, #40]
 186              	.LVL18:
 187              	.LBE69:
 188              	.LBE68:
  52:Src/lcd.c     **** 	uint32_t LED_values = LL_GPIO_IsOutputPinSet(LCD_data_port, LCD_data_pins);
  53:Src/lcd.c     **** 
  54:Src/lcd.c     **** 	LL_GPIO_ResetOutputPin(LCD_RS_port, LCD_RS_pin);
  55:Src/lcd.c     **** 	LL_GPIO_ResetOutputPin(LCD_RW_port, LCD_RW_pin);
  56:Src/lcd.c     **** 	LL_GPIO_ResetOutputPin(LCD_data_port, LCD_data_pins);
  57:Src/lcd.c     **** 	LL_GPIO_SetOutputPin(LCD_data_port, buffer<<8);
 189              		.loc 1 57 0
 190 0026 0202     		lsls	r2, r0, #8
 191              	.LVL19:
 192              	.LBB70:
 193              	.LBB71:
 966:Drivers/STM32L4xx_HAL_Driver/Inc/stm32l4xx_ll_gpio.h **** }
 194              		.loc 2 966 0
 195 0028 9A61     		str	r2, [r3, #24]
 196              	.LVL20:
 197              	.LBE71:
 198              	.LBE70:
 199              	.LBB72:
 200              	.LBB73:
 201 002a 0122     		movs	r2, #1
ARM GAS  /tmp/cca8Fq5p.s 			page 23


 202 002c 03F5E053 		add	r3, r3, #7168
 203 0030 9A61     		str	r2, [r3, #24]
 204              	.LVL21:
 205              	.LBE73:
 206              	.LBE72:
  58:Src/lcd.c     **** 
  59:Src/lcd.c     **** 	LL_GPIO_SetOutputPin(LCD_E_port, LCD_E_pin);
  60:Src/lcd.c     **** 	if ((buffer & 0x80) > 0){
 207              		.loc 1 60 0
 208 0032 10F0800F 		tst	r0, #128
 209 0036 0CD0     		beq	.L6
  61:Src/lcd.c     **** 		LL_mDelay(1);
 210              		.loc 1 61 0
 211 0038 1046     		mov	r0, r2
 212              	.LVL22:
 213 003a FFF7FEFF 		bl	LL_mDelay
 214              	.LVL23:
 215              	.L7:
 216              	.LBB74:
 217              	.LBB75:
 218              		.loc 2 995 0
 219 003e 0122     		movs	r2, #1
 220 0040 074B     		ldr	r3, .L9+4
 221 0042 9A62     		str	r2, [r3, #40]
 222              	.LVL24:
 223              	.LBE75:
 224              	.LBE74:
 225              	.LBB76:
 226              	.LBB77:
 227 0044 4FF09043 		mov	r3, #1207959552
 228 0048 4FF47F42 		mov	r2, #65280
 229 004c 9A62     		str	r2, [r3, #40]
 230              	.LVL25:
 231              	.LBE77:
 232              	.LBE76:
 233              	.LBB78:
 234              	.LBB79:
 966:Drivers/STM32L4xx_HAL_Driver/Inc/stm32l4xx_ll_gpio.h **** }
 235              		.loc 2 966 0
 236 004e 9C61     		str	r4, [r3, #24]
 237              	.LVL26:
 238 0050 10BD     		pop	{r4, pc}
 239              	.LVL27:
 240              	.L6:
 241              	.LBE79:
 242              	.LBE78:
  62:Src/lcd.c     **** 	}
  63:Src/lcd.c     **** 	else{
  64:Src/lcd.c     **** 	    LL_mDelay(2);
 243              		.loc 1 64 0
 244 0052 0220     		movs	r0, #2
 245              	.LVL28:
 246 0054 FFF7FEFF 		bl	LL_mDelay
 247              	.LVL29:
 248 0058 F1E7     		b	.L7
 249              	.L10:
 250 005a 00BF     		.align	2
ARM GAS  /tmp/cca8Fq5p.s 			page 24


 251              	.L9:
 252 005c 00040048 		.word	1207960576
 253 0060 001C0048 		.word	1207966720
 254              		.cfi_endproc
 255              	.LFE1426:
 257              		.section	.text.init_LCD,"ax",%progbits
 258              		.align	1
 259              		.global	init_LCD
 260              		.syntax unified
 261              		.thumb
 262              		.thumb_func
 263              		.fpu fpv4-sp-d16
 265              	init_LCD:
 266              	.LFB1424:
  10:Src/lcd.c     **** 	LL_GPIO_ResetOutputPin(LCD_RS_port, LCD_RS_pin);
 267              		.loc 1 10 0
 268              		.cfi_startproc
 269              		@ args = 0, pretend = 0, frame = 0
 270              		@ frame_needed = 0, uses_anonymous_args = 0
 271 0000 38B5     		push	{r3, r4, r5, lr}
 272              	.LCFI2:
 273              		.cfi_def_cfa_offset 16
 274              		.cfi_offset 3, -16
 275              		.cfi_offset 4, -12
 276              		.cfi_offset 5, -8
 277              		.cfi_offset 14, -4
 278              	.LVL30:
 279              	.LBB80:
 280              	.LBB81:
 281              		.loc 2 995 0
 282 0002 184B     		ldr	r3, .L13
 283 0004 0224     		movs	r4, #2
 284 0006 9C62     		str	r4, [r3, #40]
 285              	.LVL31:
 286              	.LBE81:
 287              	.LBE80:
 288              	.LBB82:
 289              	.LBB83:
 290 0008 0422     		movs	r2, #4
 291 000a 9A62     		str	r2, [r3, #40]
 292              	.LVL32:
 293              	.LBE83:
 294              	.LBE82:
 295              	.LBB84:
 296              	.LBB85:
 297 000c 0125     		movs	r5, #1
 298 000e 03F5C053 		add	r3, r3, #6144
 299 0012 9D62     		str	r5, [r3, #40]
 300              	.LVL33:
 301              	.LBE85:
 302              	.LBE84:
  14:Src/lcd.c     **** 	LCD_write_cmd(0x30);//wake up
 303              		.loc 1 14 0
 304 0014 6420     		movs	r0, #100
 305 0016 FFF7FEFF 		bl	LL_mDelay
 306              	.LVL34:
  15:Src/lcd.c     **** 	LL_mDelay(30);
ARM GAS  /tmp/cca8Fq5p.s 			page 25


 307              		.loc 1 15 0
 308 001a 3020     		movs	r0, #48
 309 001c FFF7FEFF 		bl	LCD_write_cmd
 310              	.LVL35:
  16:Src/lcd.c     **** 	LCD_write_cmd(0x30);
 311              		.loc 1 16 0
 312 0020 1E20     		movs	r0, #30
 313 0022 FFF7FEFF 		bl	LL_mDelay
 314              	.LVL36:
  17:Src/lcd.c     **** 	LL_mDelay(10);
 315              		.loc 1 17 0
 316 0026 3020     		movs	r0, #48
 317 0028 FFF7FEFF 		bl	LCD_write_cmd
 318              	.LVL37:
  18:Src/lcd.c     **** 	LCD_write_cmd(0x30);
 319              		.loc 1 18 0
 320 002c 0A20     		movs	r0, #10
 321 002e FFF7FEFF 		bl	LL_mDelay
 322              	.LVL38:
  19:Src/lcd.c     **** 	LL_mDelay(10);
 323              		.loc 1 19 0
 324 0032 3020     		movs	r0, #48
 325 0034 FFF7FEFF 		bl	LCD_write_cmd
 326              	.LVL39:
  20:Src/lcd.c     **** 	LCD_write_cmd(0x38);//8-bit/2-line
 327              		.loc 1 20 0
 328 0038 0A20     		movs	r0, #10
 329 003a FFF7FEFF 		bl	LL_mDelay
 330              	.LVL40:
  21:Src/lcd.c     **** 	LCD_write_cmd(0x10);//set cursor
 331              		.loc 1 21 0
 332 003e 3820     		movs	r0, #56
 333 0040 FFF7FEFF 		bl	LCD_write_cmd
 334              	.LVL41:
  22:Src/lcd.c     **** 	LCD_write_cmd(0x0C);//display on, cursor on
 335              		.loc 1 22 0
 336 0044 1020     		movs	r0, #16
 337 0046 FFF7FEFF 		bl	LCD_write_cmd
 338              	.LVL42:
  23:Src/lcd.c     **** 	LCD_write_cmd(0x06);//entry mode
 339              		.loc 1 23 0
 340 004a 0C20     		movs	r0, #12
 341 004c FFF7FEFF 		bl	LCD_write_cmd
 342              	.LVL43:
  24:Src/lcd.c     **** 
 343              		.loc 1 24 0
 344 0050 0620     		movs	r0, #6
 345 0052 FFF7FEFF 		bl	LCD_write_cmd
 346              	.LVL44:
  26:Src/lcd.c     **** 	LCD_write_cmd(0x02);//return cursor to home
 347              		.loc 1 26 0
 348 0056 2846     		mov	r0, r5
 349 0058 FFF7FEFF 		bl	LCD_write_cmd
 350              	.LVL45:
  27:Src/lcd.c     **** 
 351              		.loc 1 27 0
 352 005c 2046     		mov	r0, r4
ARM GAS  /tmp/cca8Fq5p.s 			page 26


 353 005e FFF7FEFF 		bl	LCD_write_cmd
 354              	.LVL46:
 355 0062 38BD     		pop	{r3, r4, r5, pc}
 356              	.L14:
 357              		.align	2
 358              	.L13:
 359 0064 00040048 		.word	1207960576
 360              		.cfi_endproc
 361              	.LFE1424:
 363              		.section	.text.LCD_cursor_pos,"ax",%progbits
 364              		.align	1
 365              		.global	LCD_cursor_pos
 366              		.syntax unified
 367              		.thumb
 368              		.thumb_func
 369              		.fpu fpv4-sp-d16
 371              	LCD_cursor_pos:
 372              	.LFB1427:
  65:Src/lcd.c     **** 	}
  66:Src/lcd.c     **** 	LL_GPIO_ResetOutputPin(LCD_E_port, LCD_E_pin);
  67:Src/lcd.c     **** 
  68:Src/lcd.c     **** 	LL_GPIO_ResetOutputPin(LCD_data_port, LCD_data_pins);
  69:Src/lcd.c     **** 	LL_GPIO_SetOutputPin(LCD_data_port, LED_values);
  70:Src/lcd.c     **** 	return;
  71:Src/lcd.c     **** }
  72:Src/lcd.c     **** 
  73:Src/lcd.c     **** /*set cursor position for LCD, 1 indexed*/
  74:Src/lcd.c     **** void LCD_cursor_pos(int row, int column){
 373              		.loc 1 74 0
 374              		.cfi_startproc
 375              		@ args = 0, pretend = 0, frame = 0
 376              		@ frame_needed = 0, uses_anonymous_args = 0
 377              	.LVL47:
 378 0000 08B5     		push	{r3, lr}
 379              	.LCFI3:
 380              		.cfi_def_cfa_offset 8
 381              		.cfi_offset 3, -8
 382              		.cfi_offset 14, -4
 383              	.LVL48:
  75:Src/lcd.c     **** 	char pos = 0x80;
  76:Src/lcd.c     **** 
  77:Src/lcd.c     **** 	if (row == 4){
 384              		.loc 1 77 0
 385 0002 0428     		cmp	r0, #4
 386 0004 0BD0     		beq	.L17
  78:Src/lcd.c     **** 		pos += 0x54;
  79:Src/lcd.c     **** 	}
  80:Src/lcd.c     **** 	else if (row == 3){
 387              		.loc 1 80 0
 388 0006 0328     		cmp	r0, #3
 389 0008 0BD0     		beq	.L18
  81:Src/lcd.c     **** 		pos += 0x14;
  82:Src/lcd.c     **** 	}
  83:Src/lcd.c     **** 	else if (row == 2){
 390              		.loc 1 83 0
 391 000a 0228     		cmp	r0, #2
 392 000c 0BD0     		beq	.L19
ARM GAS  /tmp/cca8Fq5p.s 			page 27


  75:Src/lcd.c     **** 
 393              		.loc 1 75 0
 394 000e 8020     		movs	r0, #128
 395              	.LVL49:
 396              	.L16:
  84:Src/lcd.c     **** 		pos += 0x40;
  85:Src/lcd.c     **** 	}
  86:Src/lcd.c     **** 	else if (row == 1){
  87:Src/lcd.c     **** 	}
  88:Src/lcd.c     **** 	else{
  89:Src/lcd.c     **** 		//return exception or something?
  90:Src/lcd.c     **** 	}
  91:Src/lcd.c     **** 	pos += (column - 1);
 397              		.loc 1 91 0
 398 0010 0844     		add	r0, r0, r1
 399              	.LVL50:
 400 0012 C0B2     		uxtb	r0, r0
 401 0014 0138     		subs	r0, r0, #1
 402              	.LVL51:
  92:Src/lcd.c     **** 
  93:Src/lcd.c     **** 	LCD_write_cmd(pos);//write DDRAM address
 403              		.loc 1 93 0
 404 0016 C0B2     		uxtb	r0, r0
 405 0018 FFF7FEFF 		bl	LCD_write_cmd
 406              	.LVL52:
 407 001c 08BD     		pop	{r3, pc}
 408              	.LVL53:
 409              	.L17:
  78:Src/lcd.c     **** 	}
 410              		.loc 1 78 0
 411 001e D420     		movs	r0, #212
 412              	.LVL54:
 413 0020 F6E7     		b	.L16
 414              	.LVL55:
 415              	.L18:
  81:Src/lcd.c     **** 	}
 416              		.loc 1 81 0
 417 0022 9420     		movs	r0, #148
 418              	.LVL56:
 419 0024 F4E7     		b	.L16
 420              	.LVL57:
 421              	.L19:
  84:Src/lcd.c     **** 	}
 422              		.loc 1 84 0
 423 0026 C020     		movs	r0, #192
 424              	.LVL58:
 425 0028 F2E7     		b	.L16
 426              		.cfi_endproc
 427              	.LFE1427:
 429              		.section	.text.LCD_write_integer,"ax",%progbits
 430              		.align	1
 431              		.global	LCD_write_integer
 432              		.syntax unified
 433              		.thumb
 434              		.thumb_func
 435              		.fpu fpv4-sp-d16
 437              	LCD_write_integer:
ARM GAS  /tmp/cca8Fq5p.s 			page 28


 438              	.LFB1428:
  94:Src/lcd.c     **** 	return;
  95:Src/lcd.c     **** }
  96:Src/lcd.c     **** 
  97:Src/lcd.c     **** /*write the given number to the row and column given, only writes the number of digits given by len
  98:Src/lcd.c     **** void LCD_write_integer(int row, int column, int number,unsigned int length){
 439              		.loc 1 98 0
 440              		.cfi_startproc
 441              		@ args = 0, pretend = 0, frame = 24
 442              		@ frame_needed = 0, uses_anonymous_args = 0
 443              	.LVL59:
 444 0000 F0B5     		push	{r4, r5, r6, r7, lr}
 445              	.LCFI4:
 446              		.cfi_def_cfa_offset 20
 447              		.cfi_offset 4, -20
 448              		.cfi_offset 5, -16
 449              		.cfi_offset 6, -12
 450              		.cfi_offset 7, -8
 451              		.cfi_offset 14, -4
 452 0002 87B0     		sub	sp, sp, #28
 453              	.LCFI5:
 454              		.cfi_def_cfa_offset 48
 455 0004 8646     		mov	lr, r0
 456 0006 8C46     		mov	ip, r1
 457 0008 1546     		mov	r5, r2
 458 000a 1F46     		mov	r7, r3
  99:Src/lcd.c     ****     const unsigned int powers_of_ten[5] = {10000, 1000, 100, 10, 1};
 459              		.loc 1 99 0
 460 000c 01AC     		add	r4, sp, #4
 461 000e 1C4E     		ldr	r6, .L28
 462 0010 0FCE     		ldmia	r6!, {r0, r1, r2, r3}
 463              	.LVL60:
 464 0012 0FC4     		stmia	r4!, {r0, r1, r2, r3}
 465 0014 3368     		ldr	r3, [r6]
 466 0016 2360     		str	r3, [r4]
 100:Src/lcd.c     ****     static const unsigned int max_length = 5;
 101:Src/lcd.c     ****     unsigned int i = max_length - length;
 467              		.loc 1 101 0
 468 0018 C7F10504 		rsb	r4, r7, #5
 469              	.LVL61:
 102:Src/lcd.c     ****     int num_temp = number;
 103:Src/lcd.c     ****     char temp = 0;
 104:Src/lcd.c     **** 
 105:Src/lcd.c     ****     LCD_cursor_pos(row, column);
 470              		.loc 1 105 0
 471 001c 6146     		mov	r1, ip
 472 001e 7046     		mov	r0, lr
 473 0020 FFF7FEFF 		bl	LCD_cursor_pos
 474              	.LVL62:
 106:Src/lcd.c     **** 
 107:Src/lcd.c     **** 	// Add a - for negative numbers
 108:Src/lcd.c     ****     if(num_temp < 0){ 
 475              		.loc 1 108 0
 476 0024 002D     		cmp	r5, #0
 477 0026 0ADA     		bge	.L23
 109:Src/lcd.c     ****         LCD_write_data('-');
 478              		.loc 1 109 0
ARM GAS  /tmp/cca8Fq5p.s 			page 29


 479 0028 2D20     		movs	r0, #45
 480 002a FFF7FEFF 		bl	LCD_write_data
 481              	.LVL63:
 110:Src/lcd.c     ****         i++;
 482              		.loc 1 110 0
 483 002e C7F10604 		rsb	r4, r7, #6
 484              	.LVL64:
 111:Src/lcd.c     ****         num_temp *= -1;
 485              		.loc 1 111 0
 486 0032 6D42     		negs	r5, r5
 487              	.LVL65:
 488 0034 03E0     		b	.L23
 489              	.LVL66:
 490              	.L25:
 112:Src/lcd.c     ****     }
 113:Src/lcd.c     **** 
 114:Src/lcd.c     **** 	// Remove leading zeros
 115:Src/lcd.c     ****     for(; (num_temp < powers_of_ten[i]) && (i < (max_length - 1) ); i++){
 116:Src/lcd.c     ****         LCD_write_data(' ');
 491              		.loc 1 116 0 discriminator 3
 492 0036 2020     		movs	r0, #32
 493 0038 FFF7FEFF 		bl	LCD_write_data
 494              	.LVL67:
 115:Src/lcd.c     ****         LCD_write_data(' ');
 495              		.loc 1 115 0 discriminator 3
 496 003c 0134     		adds	r4, r4, #1
 497              	.LVL68:
 498              	.L23:
 115:Src/lcd.c     ****         LCD_write_data(' ');
 499              		.loc 1 115 0 is_stmt 0 discriminator 1
 500 003e 06AB     		add	r3, sp, #24
 501 0040 03EB8403 		add	r3, r3, r4, lsl #2
 502 0044 53F8143C 		ldr	r3, [r3, #-20]
 503 0048 AB42     		cmp	r3, r5
 504 004a 11D9     		bls	.L24
 115:Src/lcd.c     ****         LCD_write_data(' ');
 505              		.loc 1 115 0 discriminator 2
 506 004c 032C     		cmp	r4, #3
 507 004e F2D9     		bls	.L25
 508 0050 0EE0     		b	.L24
 509              	.LVL69:
 510              	.L26:
 117:Src/lcd.c     ****     }
 118:Src/lcd.c     **** 
 119:Src/lcd.c     ****     for(; i < (max_length - 1); i++){
 120:Src/lcd.c     ****         temp = num_temp / powers_of_ten[i];
 511              		.loc 1 120 0 is_stmt 1 discriminator 2
 512 0052 06AB     		add	r3, sp, #24
 513 0054 03EB8403 		add	r3, r3, r4, lsl #2
 514 0058 53F8147C 		ldr	r7, [r3, #-20]
 515 005c B5FBF7F6 		udiv	r6, r5, r7
 516              	.LVL70:
 517 0060 F6B2     		uxtb	r6, r6
 121:Src/lcd.c     ****         LCD_write_data(temp + 48);
 518              		.loc 1 121 0 discriminator 2
 519 0062 06F13000 		add	r0, r6, #48
 520 0066 FFF7FEFF 		bl	LCD_write_data
ARM GAS  /tmp/cca8Fq5p.s 			page 30


 521              	.LVL71:
 122:Src/lcd.c     ****         num_temp -= temp * powers_of_ten[i];
 522              		.loc 1 122 0 discriminator 2
 523 006a 07FB1655 		mls	r5, r7, r6, r5
 524              	.LVL72:
 119:Src/lcd.c     ****         temp = num_temp / powers_of_ten[i];
 525              		.loc 1 119 0 discriminator 2
 526 006e 0134     		adds	r4, r4, #1
 527              	.LVL73:
 528              	.L24:
 119:Src/lcd.c     ****         temp = num_temp / powers_of_ten[i];
 529              		.loc 1 119 0 is_stmt 0 discriminator 1
 530 0070 032C     		cmp	r4, #3
 531 0072 EED9     		bls	.L26
 123:Src/lcd.c     ****     }
 124:Src/lcd.c     **** 
 125:Src/lcd.c     ****     LCD_write_data(num_temp + 48);
 532              		.loc 1 125 0 is_stmt 1
 533 0074 05F13000 		add	r0, r5, #48
 534 0078 FFF7FEFF 		bl	LCD_write_data
 535              	.LVL74:
 126:Src/lcd.c     **** 
 127:Src/lcd.c     ****     return;
 128:Src/lcd.c     **** }
 536              		.loc 1 128 0
 537 007c 07B0     		add	sp, sp, #28
 538              	.LCFI6:
 539              		.cfi_def_cfa_offset 20
 540              		@ sp needed
 541 007e F0BD     		pop	{r4, r5, r6, r7, pc}
 542              	.LVL75:
 543              	.L29:
 544              		.align	2
 545              	.L28:
 546 0080 00000000 		.word	.LANCHOR0
 547              		.cfi_endproc
 548              	.LFE1428:
 550              		.section	.rodata
 551              		.align	2
 552              		.set	.LANCHOR0,. + 0
 553              	.LC0:
 554 0000 10270000 		.word	10000
 555 0004 E8030000 		.word	1000
 556 0008 64000000 		.word	100
 557 000c 0A000000 		.word	10
 558 0010 01000000 		.word	1
 559              		.text
 560              	.Letext0:
 561              		.file 3 "/usr/arm-none-eabi/include/machine/_default_types.h"
 562              		.file 4 "/usr/arm-none-eabi/include/sys/_stdint.h"
 563              		.file 5 "Drivers/CMSIS/Include/core_cm4.h"
 564              		.file 6 "Drivers/CMSIS/Device/ST/STM32L4xx/Include/system_stm32l4xx.h"
 565              		.file 7 "Drivers/CMSIS/Device/ST/STM32L4xx/Include/stm32l476xx.h"
 566              		.file 8 "Drivers/STM32L4xx_HAL_Driver/Inc/stm32l4xx_ll_dma.h"
 567              		.file 9 "Drivers/STM32L4xx_HAL_Driver/Inc/stm32l4xx_ll_tim.h"
 568              		.file 10 "/usr/arm-none-eabi/include/sys/lock.h"
 569              		.file 11 "/usr/arm-none-eabi/include/sys/_types.h"
ARM GAS  /tmp/cca8Fq5p.s 			page 31


 570              		.file 12 "/usr/lib/gcc/arm-none-eabi/6.3.1/include/stddef.h"
 571              		.file 13 "/usr/arm-none-eabi/include/sys/reent.h"
 572              		.file 14 "Drivers/STM32L4xx_HAL_Driver/Inc/stm32l4xx_ll_utils.h"
ARM GAS  /tmp/cca8Fq5p.s 			page 32

