ARM GAS  /tmp/cck6MdJW.s 			page 1


   1              		.cpu cortex-m4
   2              		.eabi_attribute 27, 1
   3              		.eabi_attribute 28, 1
   4              		.eabi_attribute 20, 1
   5              		.eabi_attribute 21, 1
   6              		.eabi_attribute 23, 3
   7              		.eabi_attribute 24, 1
   8              		.eabi_attribute 25, 1
   9              		.eabi_attribute 26, 1
  10              		.eabi_attribute 30, 1
  11              		.eabi_attribute 34, 1
  12              		.eabi_attribute 18, 4
  13              		.file	"stm32l4xx_hal.c"
  14              		.text
  15              	.Ltext0:
  16              		.cfi_sections	.debug_frame
  17              		.section	.text.HAL_MspInit,"ax",%progbits
  18              		.align	1
  19              		.weak	HAL_MspInit
  20              		.syntax unified
  21              		.thumb
  22              		.thumb_func
  23              		.fpu fpv4-sp-d16
  25              	HAL_MspInit:
  26              	.LFB1501:
  27              		.file 1 "Drivers/STM32L4xx_HAL_Driver/Src/stm32l4xx_hal.c"
   1:Drivers/STM32L4xx_HAL_Driver/Src/stm32l4xx_hal.c **** /**
   2:Drivers/STM32L4xx_HAL_Driver/Src/stm32l4xx_hal.c ****   ******************************************************************************
   3:Drivers/STM32L4xx_HAL_Driver/Src/stm32l4xx_hal.c ****   * @file    stm32l4xx_hal.c
   4:Drivers/STM32L4xx_HAL_Driver/Src/stm32l4xx_hal.c ****   * @author  MCD Application Team
   5:Drivers/STM32L4xx_HAL_Driver/Src/stm32l4xx_hal.c ****   * @brief   HAL module driver.
   6:Drivers/STM32L4xx_HAL_Driver/Src/stm32l4xx_hal.c ****   *          This is the common part of the HAL initialization
   7:Drivers/STM32L4xx_HAL_Driver/Src/stm32l4xx_hal.c ****   *
   8:Drivers/STM32L4xx_HAL_Driver/Src/stm32l4xx_hal.c ****   @verbatim
   9:Drivers/STM32L4xx_HAL_Driver/Src/stm32l4xx_hal.c ****   ==============================================================================
  10:Drivers/STM32L4xx_HAL_Driver/Src/stm32l4xx_hal.c ****                      ##### How to use this driver #####
  11:Drivers/STM32L4xx_HAL_Driver/Src/stm32l4xx_hal.c ****   ==============================================================================
  12:Drivers/STM32L4xx_HAL_Driver/Src/stm32l4xx_hal.c ****     [..]
  13:Drivers/STM32L4xx_HAL_Driver/Src/stm32l4xx_hal.c ****     The common HAL driver contains a set of generic and common APIs that can be
  14:Drivers/STM32L4xx_HAL_Driver/Src/stm32l4xx_hal.c ****     used by the PPP peripheral drivers and the user to start using the HAL.
  15:Drivers/STM32L4xx_HAL_Driver/Src/stm32l4xx_hal.c ****     [..]
  16:Drivers/STM32L4xx_HAL_Driver/Src/stm32l4xx_hal.c ****     The HAL contains two APIs' categories:
  17:Drivers/STM32L4xx_HAL_Driver/Src/stm32l4xx_hal.c ****          (+) Common HAL APIs
  18:Drivers/STM32L4xx_HAL_Driver/Src/stm32l4xx_hal.c ****          (+) Services HAL APIs
  19:Drivers/STM32L4xx_HAL_Driver/Src/stm32l4xx_hal.c **** 
  20:Drivers/STM32L4xx_HAL_Driver/Src/stm32l4xx_hal.c ****   @endverbatim
  21:Drivers/STM32L4xx_HAL_Driver/Src/stm32l4xx_hal.c ****   ******************************************************************************
  22:Drivers/STM32L4xx_HAL_Driver/Src/stm32l4xx_hal.c ****   * @attention
  23:Drivers/STM32L4xx_HAL_Driver/Src/stm32l4xx_hal.c ****   *
  24:Drivers/STM32L4xx_HAL_Driver/Src/stm32l4xx_hal.c ****   * <h2><center>&copy; COPYRIGHT(c) 2017 STMicroelectronics</center></h2>
  25:Drivers/STM32L4xx_HAL_Driver/Src/stm32l4xx_hal.c ****   *
  26:Drivers/STM32L4xx_HAL_Driver/Src/stm32l4xx_hal.c ****   * Redistribution and use in source and binary forms, with or without modification,
  27:Drivers/STM32L4xx_HAL_Driver/Src/stm32l4xx_hal.c ****   * are permitted provided that the following conditions are met:
  28:Drivers/STM32L4xx_HAL_Driver/Src/stm32l4xx_hal.c ****   *   1. Redistributions of source code must retain the above copyright notice,
  29:Drivers/STM32L4xx_HAL_Driver/Src/stm32l4xx_hal.c ****   *      this list of conditions and the following disclaimer.
  30:Drivers/STM32L4xx_HAL_Driver/Src/stm32l4xx_hal.c ****   *   2. Redistributions in binary form must reproduce the above copyright notice,
  31:Drivers/STM32L4xx_HAL_Driver/Src/stm32l4xx_hal.c ****   *      this list of conditions and the following disclaimer in the documentation
ARM GAS  /tmp/cck6MdJW.s 			page 2


  32:Drivers/STM32L4xx_HAL_Driver/Src/stm32l4xx_hal.c ****   *      and/or other materials provided with the distribution.
  33:Drivers/STM32L4xx_HAL_Driver/Src/stm32l4xx_hal.c ****   *   3. Neither the name of STMicroelectronics nor the names of its contributors
  34:Drivers/STM32L4xx_HAL_Driver/Src/stm32l4xx_hal.c ****   *      may be used to endorse or promote products derived from this software
  35:Drivers/STM32L4xx_HAL_Driver/Src/stm32l4xx_hal.c ****   *      without specific prior written permission.
  36:Drivers/STM32L4xx_HAL_Driver/Src/stm32l4xx_hal.c ****   *
  37:Drivers/STM32L4xx_HAL_Driver/Src/stm32l4xx_hal.c ****   * THIS SOFTWARE IS PROVIDED BY THE COPYRIGHT HOLDERS AND CONTRIBUTORS "AS IS"
  38:Drivers/STM32L4xx_HAL_Driver/Src/stm32l4xx_hal.c ****   * AND ANY EXPRESS OR IMPLIED WARRANTIES, INCLUDING, BUT NOT LIMITED TO, THE
  39:Drivers/STM32L4xx_HAL_Driver/Src/stm32l4xx_hal.c ****   * IMPLIED WARRANTIES OF MERCHANTABILITY AND FITNESS FOR A PARTICULAR PURPOSE ARE
  40:Drivers/STM32L4xx_HAL_Driver/Src/stm32l4xx_hal.c ****   * DISCLAIMED. IN NO EVENT SHALL THE COPYRIGHT HOLDER OR CONTRIBUTORS BE LIABLE
  41:Drivers/STM32L4xx_HAL_Driver/Src/stm32l4xx_hal.c ****   * FOR ANY DIRECT, INDIRECT, INCIDENTAL, SPECIAL, EXEMPLARY, OR CONSEQUENTIAL
  42:Drivers/STM32L4xx_HAL_Driver/Src/stm32l4xx_hal.c ****   * DAMAGES (INCLUDING, BUT NOT LIMITED TO, PROCUREMENT OF SUBSTITUTE GOODS OR
  43:Drivers/STM32L4xx_HAL_Driver/Src/stm32l4xx_hal.c ****   * SERVICES; LOSS OF USE, DATA, OR PROFITS; OR BUSINESS INTERRUPTION) HOWEVER
  44:Drivers/STM32L4xx_HAL_Driver/Src/stm32l4xx_hal.c ****   * CAUSED AND ON ANY THEORY OF LIABILITY, WHETHER IN CONTRACT, STRICT LIABILITY,
  45:Drivers/STM32L4xx_HAL_Driver/Src/stm32l4xx_hal.c ****   * OR TORT (INCLUDING NEGLIGENCE OR OTHERWISE) ARISING IN ANY WAY OUT OF THE USE
  46:Drivers/STM32L4xx_HAL_Driver/Src/stm32l4xx_hal.c ****   * OF THIS SOFTWARE, EVEN IF ADVISED OF THE POSSIBILITY OF SUCH DAMAGE.
  47:Drivers/STM32L4xx_HAL_Driver/Src/stm32l4xx_hal.c ****   *
  48:Drivers/STM32L4xx_HAL_Driver/Src/stm32l4xx_hal.c ****   ******************************************************************************
  49:Drivers/STM32L4xx_HAL_Driver/Src/stm32l4xx_hal.c ****   */
  50:Drivers/STM32L4xx_HAL_Driver/Src/stm32l4xx_hal.c **** 
  51:Drivers/STM32L4xx_HAL_Driver/Src/stm32l4xx_hal.c **** /* Includes ------------------------------------------------------------------*/
  52:Drivers/STM32L4xx_HAL_Driver/Src/stm32l4xx_hal.c **** #include "stm32l4xx_hal.h"
  53:Drivers/STM32L4xx_HAL_Driver/Src/stm32l4xx_hal.c **** 
  54:Drivers/STM32L4xx_HAL_Driver/Src/stm32l4xx_hal.c **** /** @addtogroup STM32L4xx_HAL_Driver
  55:Drivers/STM32L4xx_HAL_Driver/Src/stm32l4xx_hal.c ****   * @{
  56:Drivers/STM32L4xx_HAL_Driver/Src/stm32l4xx_hal.c ****   */
  57:Drivers/STM32L4xx_HAL_Driver/Src/stm32l4xx_hal.c **** 
  58:Drivers/STM32L4xx_HAL_Driver/Src/stm32l4xx_hal.c **** /** @defgroup HAL HAL
  59:Drivers/STM32L4xx_HAL_Driver/Src/stm32l4xx_hal.c ****   * @brief HAL module driver
  60:Drivers/STM32L4xx_HAL_Driver/Src/stm32l4xx_hal.c ****   * @{
  61:Drivers/STM32L4xx_HAL_Driver/Src/stm32l4xx_hal.c ****   */
  62:Drivers/STM32L4xx_HAL_Driver/Src/stm32l4xx_hal.c **** 
  63:Drivers/STM32L4xx_HAL_Driver/Src/stm32l4xx_hal.c **** #ifdef HAL_MODULE_ENABLED
  64:Drivers/STM32L4xx_HAL_Driver/Src/stm32l4xx_hal.c **** 
  65:Drivers/STM32L4xx_HAL_Driver/Src/stm32l4xx_hal.c **** /* Private typedef -----------------------------------------------------------*/
  66:Drivers/STM32L4xx_HAL_Driver/Src/stm32l4xx_hal.c **** /* Private define ------------------------------------------------------------*/
  67:Drivers/STM32L4xx_HAL_Driver/Src/stm32l4xx_hal.c **** /**
  68:Drivers/STM32L4xx_HAL_Driver/Src/stm32l4xx_hal.c ****  * @brief STM32L4xx HAL Driver version number
  69:Drivers/STM32L4xx_HAL_Driver/Src/stm32l4xx_hal.c ****    */
  70:Drivers/STM32L4xx_HAL_Driver/Src/stm32l4xx_hal.c **** #define __STM32L4xx_HAL_VERSION_MAIN   (0x01) /*!< [31:24] main version */
  71:Drivers/STM32L4xx_HAL_Driver/Src/stm32l4xx_hal.c **** #define __STM32L4xx_HAL_VERSION_SUB1   (0x08) /*!< [23:16] sub1 version */
  72:Drivers/STM32L4xx_HAL_Driver/Src/stm32l4xx_hal.c **** #define __STM32L4xx_HAL_VERSION_SUB2   (0x00) /*!< [15:8]  sub2 version */
  73:Drivers/STM32L4xx_HAL_Driver/Src/stm32l4xx_hal.c **** #define __STM32L4xx_HAL_VERSION_RC     (0x00) /*!< [7:0]  release candidate */
  74:Drivers/STM32L4xx_HAL_Driver/Src/stm32l4xx_hal.c **** #define __STM32L4xx_HAL_VERSION         ((__STM32L4xx_HAL_VERSION_MAIN << 24)\
  75:Drivers/STM32L4xx_HAL_Driver/Src/stm32l4xx_hal.c ****                                         |(__STM32L4xx_HAL_VERSION_SUB1 << 16)\
  76:Drivers/STM32L4xx_HAL_Driver/Src/stm32l4xx_hal.c ****                                         |(__STM32L4xx_HAL_VERSION_SUB2 << 8 )\
  77:Drivers/STM32L4xx_HAL_Driver/Src/stm32l4xx_hal.c ****                                         |(__STM32L4xx_HAL_VERSION_RC))
  78:Drivers/STM32L4xx_HAL_Driver/Src/stm32l4xx_hal.c **** 
  79:Drivers/STM32L4xx_HAL_Driver/Src/stm32l4xx_hal.c **** #if defined(VREFBUF)
  80:Drivers/STM32L4xx_HAL_Driver/Src/stm32l4xx_hal.c **** #define VREFBUF_TIMEOUT_VALUE     (uint32_t)10   /* 10 ms (to be confirmed) */
  81:Drivers/STM32L4xx_HAL_Driver/Src/stm32l4xx_hal.c **** #endif /* VREFBUF */
  82:Drivers/STM32L4xx_HAL_Driver/Src/stm32l4xx_hal.c **** 
  83:Drivers/STM32L4xx_HAL_Driver/Src/stm32l4xx_hal.c **** /* ------------ SYSCFG registers bit address in the alias region ------------ */
  84:Drivers/STM32L4xx_HAL_Driver/Src/stm32l4xx_hal.c **** #define SYSCFG_OFFSET             (SYSCFG_BASE - PERIPH_BASE)
  85:Drivers/STM32L4xx_HAL_Driver/Src/stm32l4xx_hal.c **** /* ---  MEMRMP Register ---*/
  86:Drivers/STM32L4xx_HAL_Driver/Src/stm32l4xx_hal.c **** /* Alias word address of FB_MODE bit */
  87:Drivers/STM32L4xx_HAL_Driver/Src/stm32l4xx_hal.c **** #define MEMRMP_OFFSET             SYSCFG_OFFSET
  88:Drivers/STM32L4xx_HAL_Driver/Src/stm32l4xx_hal.c **** #define FB_MODE_BitNumber         ((uint8_t)0x8)
ARM GAS  /tmp/cck6MdJW.s 			page 3


  89:Drivers/STM32L4xx_HAL_Driver/Src/stm32l4xx_hal.c **** #define FB_MODE_BB                (PERIPH_BB_BASE + (MEMRMP_OFFSET * 32) + (FB_MODE_BitNumber * 4))
  90:Drivers/STM32L4xx_HAL_Driver/Src/stm32l4xx_hal.c **** 
  91:Drivers/STM32L4xx_HAL_Driver/Src/stm32l4xx_hal.c **** /* --- SCSR Register ---*/
  92:Drivers/STM32L4xx_HAL_Driver/Src/stm32l4xx_hal.c **** /* Alias word address of SRAM2ER bit */
  93:Drivers/STM32L4xx_HAL_Driver/Src/stm32l4xx_hal.c **** #define SCSR_OFFSET              (SYSCFG_OFFSET + 0x18)
  94:Drivers/STM32L4xx_HAL_Driver/Src/stm32l4xx_hal.c **** #define BRER_BitNumber           ((uint8_t)0x0)
  95:Drivers/STM32L4xx_HAL_Driver/Src/stm32l4xx_hal.c **** #define SCSR_SRAM2ER_BB          (PERIPH_BB_BASE + (SCSR_OFFSET * 32) + (BRER_BitNumber * 4))
  96:Drivers/STM32L4xx_HAL_Driver/Src/stm32l4xx_hal.c **** 
  97:Drivers/STM32L4xx_HAL_Driver/Src/stm32l4xx_hal.c **** /* Private macro -------------------------------------------------------------*/
  98:Drivers/STM32L4xx_HAL_Driver/Src/stm32l4xx_hal.c **** /* Private variables ---------------------------------------------------------*/
  99:Drivers/STM32L4xx_HAL_Driver/Src/stm32l4xx_hal.c **** __IO uint32_t uwTick;
 100:Drivers/STM32L4xx_HAL_Driver/Src/stm32l4xx_hal.c **** 
 101:Drivers/STM32L4xx_HAL_Driver/Src/stm32l4xx_hal.c **** /* Private function prototypes -----------------------------------------------*/
 102:Drivers/STM32L4xx_HAL_Driver/Src/stm32l4xx_hal.c **** /* Exported functions --------------------------------------------------------*/
 103:Drivers/STM32L4xx_HAL_Driver/Src/stm32l4xx_hal.c **** 
 104:Drivers/STM32L4xx_HAL_Driver/Src/stm32l4xx_hal.c **** /** @defgroup HAL_Exported_Functions HAL Exported Functions
 105:Drivers/STM32L4xx_HAL_Driver/Src/stm32l4xx_hal.c ****   * @{
 106:Drivers/STM32L4xx_HAL_Driver/Src/stm32l4xx_hal.c ****   */
 107:Drivers/STM32L4xx_HAL_Driver/Src/stm32l4xx_hal.c **** 
 108:Drivers/STM32L4xx_HAL_Driver/Src/stm32l4xx_hal.c **** /** @defgroup HAL_Exported_Functions_Group1 Initialization and de-initialization Functions
 109:Drivers/STM32L4xx_HAL_Driver/Src/stm32l4xx_hal.c ****  *  @brief    Initialization and de-initialization functions
 110:Drivers/STM32L4xx_HAL_Driver/Src/stm32l4xx_hal.c ****  *
 111:Drivers/STM32L4xx_HAL_Driver/Src/stm32l4xx_hal.c **** @verbatim
 112:Drivers/STM32L4xx_HAL_Driver/Src/stm32l4xx_hal.c ****  ===============================================================================
 113:Drivers/STM32L4xx_HAL_Driver/Src/stm32l4xx_hal.c ****               ##### Initialization and de-initialization functions #####
 114:Drivers/STM32L4xx_HAL_Driver/Src/stm32l4xx_hal.c ****  ===============================================================================
 115:Drivers/STM32L4xx_HAL_Driver/Src/stm32l4xx_hal.c ****     [..]  This section provides functions allowing to:
 116:Drivers/STM32L4xx_HAL_Driver/Src/stm32l4xx_hal.c ****       (+) Initialize the Flash interface the NVIC allocation and initial time base
 117:Drivers/STM32L4xx_HAL_Driver/Src/stm32l4xx_hal.c ****           clock configuration.
 118:Drivers/STM32L4xx_HAL_Driver/Src/stm32l4xx_hal.c ****       (+) De-initialize common part of the HAL.
 119:Drivers/STM32L4xx_HAL_Driver/Src/stm32l4xx_hal.c ****       (+) Configure the time base source to have 1ms time base with a dedicated
 120:Drivers/STM32L4xx_HAL_Driver/Src/stm32l4xx_hal.c ****           Tick interrupt priority.
 121:Drivers/STM32L4xx_HAL_Driver/Src/stm32l4xx_hal.c ****         (++) SysTick timer is used by default as source of time base, but user
 122:Drivers/STM32L4xx_HAL_Driver/Src/stm32l4xx_hal.c ****              can eventually implement his proper time base source (a general purpose
 123:Drivers/STM32L4xx_HAL_Driver/Src/stm32l4xx_hal.c ****              timer for example or other time source), keeping in mind that Time base
 124:Drivers/STM32L4xx_HAL_Driver/Src/stm32l4xx_hal.c ****              duration should be kept 1ms since PPP_TIMEOUT_VALUEs are defined and
 125:Drivers/STM32L4xx_HAL_Driver/Src/stm32l4xx_hal.c ****              handled in milliseconds basis.
 126:Drivers/STM32L4xx_HAL_Driver/Src/stm32l4xx_hal.c ****         (++) Time base configuration function (HAL_InitTick ()) is called automatically
 127:Drivers/STM32L4xx_HAL_Driver/Src/stm32l4xx_hal.c ****              at the beginning of the program after reset by HAL_Init() or at any time
 128:Drivers/STM32L4xx_HAL_Driver/Src/stm32l4xx_hal.c ****              when clock is configured, by HAL_RCC_ClockConfig().
 129:Drivers/STM32L4xx_HAL_Driver/Src/stm32l4xx_hal.c ****         (++) Source of time base is configured  to generate interrupts at regular
 130:Drivers/STM32L4xx_HAL_Driver/Src/stm32l4xx_hal.c ****              time intervals. Care must be taken if HAL_Delay() is called from a
 131:Drivers/STM32L4xx_HAL_Driver/Src/stm32l4xx_hal.c ****              peripheral ISR process, the Tick interrupt line must have higher priority
 132:Drivers/STM32L4xx_HAL_Driver/Src/stm32l4xx_hal.c ****             (numerically lower) than the peripheral interrupt. Otherwise the caller
 133:Drivers/STM32L4xx_HAL_Driver/Src/stm32l4xx_hal.c ****             ISR process will be blocked.
 134:Drivers/STM32L4xx_HAL_Driver/Src/stm32l4xx_hal.c ****        (++) functions affecting time base configurations are declared as __weak
 135:Drivers/STM32L4xx_HAL_Driver/Src/stm32l4xx_hal.c ****              to make  override possible  in case of other  implementations in user file.
 136:Drivers/STM32L4xx_HAL_Driver/Src/stm32l4xx_hal.c **** @endverbatim
 137:Drivers/STM32L4xx_HAL_Driver/Src/stm32l4xx_hal.c ****   * @{
 138:Drivers/STM32L4xx_HAL_Driver/Src/stm32l4xx_hal.c ****   */
 139:Drivers/STM32L4xx_HAL_Driver/Src/stm32l4xx_hal.c **** 
 140:Drivers/STM32L4xx_HAL_Driver/Src/stm32l4xx_hal.c **** /**
 141:Drivers/STM32L4xx_HAL_Driver/Src/stm32l4xx_hal.c ****   * @brief  Configure the Flash prefetch, the Instruction and Data caches,
 142:Drivers/STM32L4xx_HAL_Driver/Src/stm32l4xx_hal.c ****   *         the time base source, NVIC and any required global low level hardware 
 143:Drivers/STM32L4xx_HAL_Driver/Src/stm32l4xx_hal.c ****   *         by calling the HAL_MspInit() callback function to be optionally defined in user file 
 144:Drivers/STM32L4xx_HAL_Driver/Src/stm32l4xx_hal.c ****   *         stm32l4xx_hal_msp.c.
 145:Drivers/STM32L4xx_HAL_Driver/Src/stm32l4xx_hal.c ****   *
ARM GAS  /tmp/cck6MdJW.s 			page 4


 146:Drivers/STM32L4xx_HAL_Driver/Src/stm32l4xx_hal.c ****   * @note   HAL_Init() function is called at the beginning of program after reset and before 
 147:Drivers/STM32L4xx_HAL_Driver/Src/stm32l4xx_hal.c ****   *         the clock configuration.
 148:Drivers/STM32L4xx_HAL_Driver/Src/stm32l4xx_hal.c ****   *             
 149:Drivers/STM32L4xx_HAL_Driver/Src/stm32l4xx_hal.c ****   * @note   In the default implementation the System Timer (Systick) is used as source of time base
 150:Drivers/STM32L4xx_HAL_Driver/Src/stm32l4xx_hal.c ****   *         The Systick configuration is based on MSI clock, as MSI is the clock
 151:Drivers/STM32L4xx_HAL_Driver/Src/stm32l4xx_hal.c ****   *         used after a system Reset and the NVIC configuration is set to Priority group 4.
 152:Drivers/STM32L4xx_HAL_Driver/Src/stm32l4xx_hal.c ****   *         Once done, time base tick starts incrementing: the tick variable counter is incremented
 153:Drivers/STM32L4xx_HAL_Driver/Src/stm32l4xx_hal.c ****   *         each 1ms in the SysTick_Handler() interrupt handler.
 154:Drivers/STM32L4xx_HAL_Driver/Src/stm32l4xx_hal.c ****   *
 155:Drivers/STM32L4xx_HAL_Driver/Src/stm32l4xx_hal.c ****   * @retval HAL status
 156:Drivers/STM32L4xx_HAL_Driver/Src/stm32l4xx_hal.c ****   */
 157:Drivers/STM32L4xx_HAL_Driver/Src/stm32l4xx_hal.c **** HAL_StatusTypeDef HAL_Init(void)
 158:Drivers/STM32L4xx_HAL_Driver/Src/stm32l4xx_hal.c **** {
 159:Drivers/STM32L4xx_HAL_Driver/Src/stm32l4xx_hal.c ****   /* Configure Flash prefetch, Instruction cache, Data cache */
 160:Drivers/STM32L4xx_HAL_Driver/Src/stm32l4xx_hal.c ****   /* Default configuration at reset is:                      */
 161:Drivers/STM32L4xx_HAL_Driver/Src/stm32l4xx_hal.c ****   /* - Prefetch disabled                                     */
 162:Drivers/STM32L4xx_HAL_Driver/Src/stm32l4xx_hal.c ****   /* - Instruction cache enabled                             */
 163:Drivers/STM32L4xx_HAL_Driver/Src/stm32l4xx_hal.c ****   /* - Data cache enabled                                    */
 164:Drivers/STM32L4xx_HAL_Driver/Src/stm32l4xx_hal.c **** #if (INSTRUCTION_CACHE_ENABLE == 0)
 165:Drivers/STM32L4xx_HAL_Driver/Src/stm32l4xx_hal.c ****    __HAL_FLASH_INSTRUCTION_CACHE_DISABLE();
 166:Drivers/STM32L4xx_HAL_Driver/Src/stm32l4xx_hal.c **** #endif /* INSTRUCTION_CACHE_ENABLE */
 167:Drivers/STM32L4xx_HAL_Driver/Src/stm32l4xx_hal.c **** 
 168:Drivers/STM32L4xx_HAL_Driver/Src/stm32l4xx_hal.c **** #if (DATA_CACHE_ENABLE == 0)
 169:Drivers/STM32L4xx_HAL_Driver/Src/stm32l4xx_hal.c ****    __HAL_FLASH_DATA_CACHE_DISABLE();
 170:Drivers/STM32L4xx_HAL_Driver/Src/stm32l4xx_hal.c **** #endif /* DATA_CACHE_ENABLE */
 171:Drivers/STM32L4xx_HAL_Driver/Src/stm32l4xx_hal.c **** 
 172:Drivers/STM32L4xx_HAL_Driver/Src/stm32l4xx_hal.c **** #if (PREFETCH_ENABLE != 0)
 173:Drivers/STM32L4xx_HAL_Driver/Src/stm32l4xx_hal.c ****   __HAL_FLASH_PREFETCH_BUFFER_ENABLE();
 174:Drivers/STM32L4xx_HAL_Driver/Src/stm32l4xx_hal.c **** #endif /* PREFETCH_ENABLE */
 175:Drivers/STM32L4xx_HAL_Driver/Src/stm32l4xx_hal.c **** 
 176:Drivers/STM32L4xx_HAL_Driver/Src/stm32l4xx_hal.c ****   /* Set Interrupt Group Priority */
 177:Drivers/STM32L4xx_HAL_Driver/Src/stm32l4xx_hal.c ****   HAL_NVIC_SetPriorityGrouping(NVIC_PRIORITYGROUP_4);
 178:Drivers/STM32L4xx_HAL_Driver/Src/stm32l4xx_hal.c **** 
 179:Drivers/STM32L4xx_HAL_Driver/Src/stm32l4xx_hal.c ****   /* Use SysTick as time base source and configure 1ms tick (default clock after Reset is MSI) */
 180:Drivers/STM32L4xx_HAL_Driver/Src/stm32l4xx_hal.c ****   HAL_InitTick(TICK_INT_PRIORITY);
 181:Drivers/STM32L4xx_HAL_Driver/Src/stm32l4xx_hal.c **** 
 182:Drivers/STM32L4xx_HAL_Driver/Src/stm32l4xx_hal.c ****   /* Init the low level hardware */
 183:Drivers/STM32L4xx_HAL_Driver/Src/stm32l4xx_hal.c ****   HAL_MspInit();
 184:Drivers/STM32L4xx_HAL_Driver/Src/stm32l4xx_hal.c **** 
 185:Drivers/STM32L4xx_HAL_Driver/Src/stm32l4xx_hal.c ****   /* Return function status */
 186:Drivers/STM32L4xx_HAL_Driver/Src/stm32l4xx_hal.c ****   return HAL_OK;
 187:Drivers/STM32L4xx_HAL_Driver/Src/stm32l4xx_hal.c **** }
 188:Drivers/STM32L4xx_HAL_Driver/Src/stm32l4xx_hal.c **** 
 189:Drivers/STM32L4xx_HAL_Driver/Src/stm32l4xx_hal.c **** /**
 190:Drivers/STM32L4xx_HAL_Driver/Src/stm32l4xx_hal.c ****   * @brief De-initialize common part of the HAL and stop the source of time base.
 191:Drivers/STM32L4xx_HAL_Driver/Src/stm32l4xx_hal.c ****   * @note This function is optional.
 192:Drivers/STM32L4xx_HAL_Driver/Src/stm32l4xx_hal.c ****   * @retval HAL status
 193:Drivers/STM32L4xx_HAL_Driver/Src/stm32l4xx_hal.c ****   */
 194:Drivers/STM32L4xx_HAL_Driver/Src/stm32l4xx_hal.c **** HAL_StatusTypeDef HAL_DeInit(void)
 195:Drivers/STM32L4xx_HAL_Driver/Src/stm32l4xx_hal.c **** {
 196:Drivers/STM32L4xx_HAL_Driver/Src/stm32l4xx_hal.c ****   /* Reset of all peripherals */
 197:Drivers/STM32L4xx_HAL_Driver/Src/stm32l4xx_hal.c ****   __HAL_RCC_APB1_FORCE_RESET();
 198:Drivers/STM32L4xx_HAL_Driver/Src/stm32l4xx_hal.c ****   __HAL_RCC_APB1_RELEASE_RESET();
 199:Drivers/STM32L4xx_HAL_Driver/Src/stm32l4xx_hal.c **** 
 200:Drivers/STM32L4xx_HAL_Driver/Src/stm32l4xx_hal.c ****   __HAL_RCC_APB2_FORCE_RESET();
 201:Drivers/STM32L4xx_HAL_Driver/Src/stm32l4xx_hal.c ****   __HAL_RCC_APB2_RELEASE_RESET();
 202:Drivers/STM32L4xx_HAL_Driver/Src/stm32l4xx_hal.c **** 
ARM GAS  /tmp/cck6MdJW.s 			page 5


 203:Drivers/STM32L4xx_HAL_Driver/Src/stm32l4xx_hal.c ****   __HAL_RCC_AHB1_FORCE_RESET();
 204:Drivers/STM32L4xx_HAL_Driver/Src/stm32l4xx_hal.c ****   __HAL_RCC_AHB1_RELEASE_RESET();
 205:Drivers/STM32L4xx_HAL_Driver/Src/stm32l4xx_hal.c **** 
 206:Drivers/STM32L4xx_HAL_Driver/Src/stm32l4xx_hal.c ****   __HAL_RCC_AHB2_FORCE_RESET();
 207:Drivers/STM32L4xx_HAL_Driver/Src/stm32l4xx_hal.c ****   __HAL_RCC_AHB2_RELEASE_RESET();
 208:Drivers/STM32L4xx_HAL_Driver/Src/stm32l4xx_hal.c **** 
 209:Drivers/STM32L4xx_HAL_Driver/Src/stm32l4xx_hal.c ****   __HAL_RCC_AHB3_FORCE_RESET();
 210:Drivers/STM32L4xx_HAL_Driver/Src/stm32l4xx_hal.c ****   __HAL_RCC_AHB3_RELEASE_RESET();
 211:Drivers/STM32L4xx_HAL_Driver/Src/stm32l4xx_hal.c **** 
 212:Drivers/STM32L4xx_HAL_Driver/Src/stm32l4xx_hal.c ****   /* De-Init the low level hardware */
 213:Drivers/STM32L4xx_HAL_Driver/Src/stm32l4xx_hal.c ****   HAL_MspDeInit();
 214:Drivers/STM32L4xx_HAL_Driver/Src/stm32l4xx_hal.c **** 
 215:Drivers/STM32L4xx_HAL_Driver/Src/stm32l4xx_hal.c ****   /* Return function status */
 216:Drivers/STM32L4xx_HAL_Driver/Src/stm32l4xx_hal.c ****   return HAL_OK;
 217:Drivers/STM32L4xx_HAL_Driver/Src/stm32l4xx_hal.c **** }
 218:Drivers/STM32L4xx_HAL_Driver/Src/stm32l4xx_hal.c **** 
 219:Drivers/STM32L4xx_HAL_Driver/Src/stm32l4xx_hal.c **** /**
 220:Drivers/STM32L4xx_HAL_Driver/Src/stm32l4xx_hal.c ****   * @brief  Initialize the MSP.
 221:Drivers/STM32L4xx_HAL_Driver/Src/stm32l4xx_hal.c ****   * @retval None
 222:Drivers/STM32L4xx_HAL_Driver/Src/stm32l4xx_hal.c ****   */
 223:Drivers/STM32L4xx_HAL_Driver/Src/stm32l4xx_hal.c **** __weak void HAL_MspInit(void)
 224:Drivers/STM32L4xx_HAL_Driver/Src/stm32l4xx_hal.c **** {
  28              		.loc 1 224 0
  29              		.cfi_startproc
  30              		@ args = 0, pretend = 0, frame = 0
  31              		@ frame_needed = 0, uses_anonymous_args = 0
  32              		@ link register save eliminated.
  33 0000 7047     		bx	lr
  34              		.cfi_endproc
  35              	.LFE1501:
  37              		.section	.text.HAL_MspDeInit,"ax",%progbits
  38              		.align	1
  39              		.weak	HAL_MspDeInit
  40              		.syntax unified
  41              		.thumb
  42              		.thumb_func
  43              		.fpu fpv4-sp-d16
  45              	HAL_MspDeInit:
  46              	.LFB1502:
 225:Drivers/STM32L4xx_HAL_Driver/Src/stm32l4xx_hal.c ****   /* NOTE : This function should not be modified, when the callback is needed,
 226:Drivers/STM32L4xx_HAL_Driver/Src/stm32l4xx_hal.c ****             the HAL_MspInit could be implemented in the user file
 227:Drivers/STM32L4xx_HAL_Driver/Src/stm32l4xx_hal.c ****    */
 228:Drivers/STM32L4xx_HAL_Driver/Src/stm32l4xx_hal.c **** }
 229:Drivers/STM32L4xx_HAL_Driver/Src/stm32l4xx_hal.c **** 
 230:Drivers/STM32L4xx_HAL_Driver/Src/stm32l4xx_hal.c **** /**
 231:Drivers/STM32L4xx_HAL_Driver/Src/stm32l4xx_hal.c ****   * @brief  DeInitialize the MSP.
 232:Drivers/STM32L4xx_HAL_Driver/Src/stm32l4xx_hal.c ****   * @retval None
 233:Drivers/STM32L4xx_HAL_Driver/Src/stm32l4xx_hal.c ****   */
 234:Drivers/STM32L4xx_HAL_Driver/Src/stm32l4xx_hal.c **** __weak void HAL_MspDeInit(void)
 235:Drivers/STM32L4xx_HAL_Driver/Src/stm32l4xx_hal.c **** {
  47              		.loc 1 235 0
  48              		.cfi_startproc
  49              		@ args = 0, pretend = 0, frame = 0
  50              		@ frame_needed = 0, uses_anonymous_args = 0
  51              		@ link register save eliminated.
  52 0000 7047     		bx	lr
  53              		.cfi_endproc
ARM GAS  /tmp/cck6MdJW.s 			page 6


  54              	.LFE1502:
  56              		.section	.text.HAL_DeInit,"ax",%progbits
  57              		.align	1
  58              		.global	HAL_DeInit
  59              		.syntax unified
  60              		.thumb
  61              		.thumb_func
  62              		.fpu fpv4-sp-d16
  64              	HAL_DeInit:
  65              	.LFB1500:
 195:Drivers/STM32L4xx_HAL_Driver/Src/stm32l4xx_hal.c ****   /* Reset of all peripherals */
  66              		.loc 1 195 0
  67              		.cfi_startproc
  68              		@ args = 0, pretend = 0, frame = 0
  69              		@ frame_needed = 0, uses_anonymous_args = 0
 195:Drivers/STM32L4xx_HAL_Driver/Src/stm32l4xx_hal.c ****   /* Reset of all peripherals */
  70              		.loc 1 195 0
  71 0000 10B5     		push	{r4, lr}
  72              	.LCFI0:
  73              		.cfi_def_cfa_offset 8
  74              		.cfi_offset 4, -8
  75              		.cfi_offset 14, -4
 197:Drivers/STM32L4xx_HAL_Driver/Src/stm32l4xx_hal.c ****   __HAL_RCC_APB1_RELEASE_RESET();
  76              		.loc 1 197 0
  77 0002 094B     		ldr	r3, .L5
  78 0004 4FF0FF32 		mov	r2, #-1
  79 0008 9A63     		str	r2, [r3, #56]
 198:Drivers/STM32L4xx_HAL_Driver/Src/stm32l4xx_hal.c **** 
  80              		.loc 1 198 0
  81 000a 0024     		movs	r4, #0
  82 000c 9C63     		str	r4, [r3, #56]
 200:Drivers/STM32L4xx_HAL_Driver/Src/stm32l4xx_hal.c ****   __HAL_RCC_APB2_RELEASE_RESET();
  83              		.loc 1 200 0
  84 000e 1A64     		str	r2, [r3, #64]
 201:Drivers/STM32L4xx_HAL_Driver/Src/stm32l4xx_hal.c **** 
  85              		.loc 1 201 0
  86 0010 1C64     		str	r4, [r3, #64]
 203:Drivers/STM32L4xx_HAL_Driver/Src/stm32l4xx_hal.c ****   __HAL_RCC_AHB1_RELEASE_RESET();
  87              		.loc 1 203 0
  88 0012 9A62     		str	r2, [r3, #40]
 204:Drivers/STM32L4xx_HAL_Driver/Src/stm32l4xx_hal.c **** 
  89              		.loc 1 204 0
  90 0014 9C62     		str	r4, [r3, #40]
 206:Drivers/STM32L4xx_HAL_Driver/Src/stm32l4xx_hal.c ****   __HAL_RCC_AHB2_RELEASE_RESET();
  91              		.loc 1 206 0
  92 0016 DA62     		str	r2, [r3, #44]
 207:Drivers/STM32L4xx_HAL_Driver/Src/stm32l4xx_hal.c **** 
  93              		.loc 1 207 0
  94 0018 DC62     		str	r4, [r3, #44]
 209:Drivers/STM32L4xx_HAL_Driver/Src/stm32l4xx_hal.c ****   __HAL_RCC_AHB3_RELEASE_RESET();
  95              		.loc 1 209 0
  96 001a 1A63     		str	r2, [r3, #48]
 210:Drivers/STM32L4xx_HAL_Driver/Src/stm32l4xx_hal.c **** 
  97              		.loc 1 210 0
  98 001c 1C63     		str	r4, [r3, #48]
 213:Drivers/STM32L4xx_HAL_Driver/Src/stm32l4xx_hal.c **** 
  99              		.loc 1 213 0
ARM GAS  /tmp/cck6MdJW.s 			page 7


 100 001e FFF7FEFF 		bl	HAL_MspDeInit
 101              	.LVL0:
 217:Drivers/STM32L4xx_HAL_Driver/Src/stm32l4xx_hal.c **** 
 102              		.loc 1 217 0
 103 0022 2046     		mov	r0, r4
 104 0024 10BD     		pop	{r4, pc}
 105              	.L6:
 106 0026 00BF     		.align	2
 107              	.L5:
 108 0028 00100240 		.word	1073876992
 109              		.cfi_endproc
 110              	.LFE1500:
 112              		.section	.text.HAL_InitTick,"ax",%progbits
 113              		.align	1
 114              		.weak	HAL_InitTick
 115              		.syntax unified
 116              		.thumb
 117              		.thumb_func
 118              		.fpu fpv4-sp-d16
 120              	HAL_InitTick:
 121              	.LFB1503:
 236:Drivers/STM32L4xx_HAL_Driver/Src/stm32l4xx_hal.c ****   /* NOTE : This function should not be modified, when the callback is needed,
 237:Drivers/STM32L4xx_HAL_Driver/Src/stm32l4xx_hal.c ****             the HAL_MspDeInit could be implemented in the user file
 238:Drivers/STM32L4xx_HAL_Driver/Src/stm32l4xx_hal.c ****    */
 239:Drivers/STM32L4xx_HAL_Driver/Src/stm32l4xx_hal.c **** }
 240:Drivers/STM32L4xx_HAL_Driver/Src/stm32l4xx_hal.c **** 
 241:Drivers/STM32L4xx_HAL_Driver/Src/stm32l4xx_hal.c **** /**
 242:Drivers/STM32L4xx_HAL_Driver/Src/stm32l4xx_hal.c ****   * @brief This function configures the source of the time base:
 243:Drivers/STM32L4xx_HAL_Driver/Src/stm32l4xx_hal.c ****   *        The time source is configured to have 1ms time base with a dedicated
 244:Drivers/STM32L4xx_HAL_Driver/Src/stm32l4xx_hal.c ****   *        Tick interrupt priority.
 245:Drivers/STM32L4xx_HAL_Driver/Src/stm32l4xx_hal.c ****   * @note This function is called  automatically at the beginning of program after
 246:Drivers/STM32L4xx_HAL_Driver/Src/stm32l4xx_hal.c ****   *       reset by HAL_Init() or at any time when clock is reconfigured  by HAL_RCC_ClockConfig().
 247:Drivers/STM32L4xx_HAL_Driver/Src/stm32l4xx_hal.c ****   * @note In the default implementation, SysTick timer is the source of time base.
 248:Drivers/STM32L4xx_HAL_Driver/Src/stm32l4xx_hal.c ****   *       It is used to generate interrupts at regular time intervals.
 249:Drivers/STM32L4xx_HAL_Driver/Src/stm32l4xx_hal.c ****   *       Care must be taken if HAL_Delay() is called from a peripheral ISR process,
 250:Drivers/STM32L4xx_HAL_Driver/Src/stm32l4xx_hal.c ****   *       The SysTick interrupt must have higher priority (numerically lower)
 251:Drivers/STM32L4xx_HAL_Driver/Src/stm32l4xx_hal.c ****   *       than the peripheral interrupt. Otherwise the caller ISR process will be blocked.
 252:Drivers/STM32L4xx_HAL_Driver/Src/stm32l4xx_hal.c ****   *       The function is declared as __weak  to be overwritten  in case of other
 253:Drivers/STM32L4xx_HAL_Driver/Src/stm32l4xx_hal.c ****   *       implementation  in user file.
 254:Drivers/STM32L4xx_HAL_Driver/Src/stm32l4xx_hal.c ****   * @param TickPriority  Tick interrupt priority.
 255:Drivers/STM32L4xx_HAL_Driver/Src/stm32l4xx_hal.c ****   * @retval HAL status
 256:Drivers/STM32L4xx_HAL_Driver/Src/stm32l4xx_hal.c ****   */
 257:Drivers/STM32L4xx_HAL_Driver/Src/stm32l4xx_hal.c **** __weak HAL_StatusTypeDef HAL_InitTick(uint32_t TickPriority)
 258:Drivers/STM32L4xx_HAL_Driver/Src/stm32l4xx_hal.c **** {
 122              		.loc 1 258 0
 123              		.cfi_startproc
 124              		@ args = 0, pretend = 0, frame = 0
 125              		@ frame_needed = 0, uses_anonymous_args = 0
 126              	.LVL1:
 127 0000 10B5     		push	{r4, lr}
 128              	.LCFI1:
 129              		.cfi_def_cfa_offset 8
 130              		.cfi_offset 4, -8
 131              		.cfi_offset 14, -4
 132 0002 0446     		mov	r4, r0
 259:Drivers/STM32L4xx_HAL_Driver/Src/stm32l4xx_hal.c ****   /*Configure the SysTick to have interrupt in 1ms time basis*/
 260:Drivers/STM32L4xx_HAL_Driver/Src/stm32l4xx_hal.c ****   HAL_SYSTICK_Config(SystemCoreClock/1000);
ARM GAS  /tmp/cck6MdJW.s 			page 8


 133              		.loc 1 260 0
 134 0004 074B     		ldr	r3, .L9
 135 0006 1868     		ldr	r0, [r3]
 136              	.LVL2:
 137 0008 074B     		ldr	r3, .L9+4
 138 000a A3FB0030 		umull	r3, r0, r3, r0
 139 000e 8009     		lsrs	r0, r0, #6
 140 0010 FFF7FEFF 		bl	HAL_SYSTICK_Config
 141              	.LVL3:
 261:Drivers/STM32L4xx_HAL_Driver/Src/stm32l4xx_hal.c **** 
 262:Drivers/STM32L4xx_HAL_Driver/Src/stm32l4xx_hal.c ****   /*Configure the SysTick IRQ priority */
 263:Drivers/STM32L4xx_HAL_Driver/Src/stm32l4xx_hal.c ****   HAL_NVIC_SetPriority(SysTick_IRQn, TickPriority ,0);
 142              		.loc 1 263 0
 143 0014 0022     		movs	r2, #0
 144 0016 2146     		mov	r1, r4
 145 0018 4FF0FF30 		mov	r0, #-1
 146 001c FFF7FEFF 		bl	HAL_NVIC_SetPriority
 147              	.LVL4:
 264:Drivers/STM32L4xx_HAL_Driver/Src/stm32l4xx_hal.c **** 
 265:Drivers/STM32L4xx_HAL_Driver/Src/stm32l4xx_hal.c ****   /* Return function status */
 266:Drivers/STM32L4xx_HAL_Driver/Src/stm32l4xx_hal.c ****   return HAL_OK;
 267:Drivers/STM32L4xx_HAL_Driver/Src/stm32l4xx_hal.c **** }
 148              		.loc 1 267 0
 149 0020 0020     		movs	r0, #0
 150 0022 10BD     		pop	{r4, pc}
 151              	.LVL5:
 152              	.L10:
 153              		.align	2
 154              	.L9:
 155 0024 00000000 		.word	SystemCoreClock
 156 0028 D34D6210 		.word	274877907
 157              		.cfi_endproc
 158              	.LFE1503:
 160              		.section	.text.HAL_Init,"ax",%progbits
 161              		.align	1
 162              		.global	HAL_Init
 163              		.syntax unified
 164              		.thumb
 165              		.thumb_func
 166              		.fpu fpv4-sp-d16
 168              	HAL_Init:
 169              	.LFB1499:
 158:Drivers/STM32L4xx_HAL_Driver/Src/stm32l4xx_hal.c ****   /* Configure Flash prefetch, Instruction cache, Data cache */
 170              		.loc 1 158 0
 171              		.cfi_startproc
 172              		@ args = 0, pretend = 0, frame = 0
 173              		@ frame_needed = 0, uses_anonymous_args = 0
 174 0000 08B5     		push	{r3, lr}
 175              	.LCFI2:
 176              		.cfi_def_cfa_offset 8
 177              		.cfi_offset 3, -8
 178              		.cfi_offset 14, -4
 177:Drivers/STM32L4xx_HAL_Driver/Src/stm32l4xx_hal.c **** 
 179              		.loc 1 177 0
 180 0002 0320     		movs	r0, #3
 181 0004 FFF7FEFF 		bl	HAL_NVIC_SetPriorityGrouping
 182              	.LVL6:
ARM GAS  /tmp/cck6MdJW.s 			page 9


 180:Drivers/STM32L4xx_HAL_Driver/Src/stm32l4xx_hal.c **** 
 183              		.loc 1 180 0
 184 0008 0020     		movs	r0, #0
 185 000a FFF7FEFF 		bl	HAL_InitTick
 186              	.LVL7:
 183:Drivers/STM32L4xx_HAL_Driver/Src/stm32l4xx_hal.c **** 
 187              		.loc 1 183 0
 188 000e FFF7FEFF 		bl	HAL_MspInit
 189              	.LVL8:
 187:Drivers/STM32L4xx_HAL_Driver/Src/stm32l4xx_hal.c **** 
 190              		.loc 1 187 0
 191 0012 0020     		movs	r0, #0
 192 0014 08BD     		pop	{r3, pc}
 193              		.cfi_endproc
 194              	.LFE1499:
 196              		.section	.text.HAL_IncTick,"ax",%progbits
 197              		.align	1
 198              		.weak	HAL_IncTick
 199              		.syntax unified
 200              		.thumb
 201              		.thumb_func
 202              		.fpu fpv4-sp-d16
 204              	HAL_IncTick:
 205              	.LFB1504:
 268:Drivers/STM32L4xx_HAL_Driver/Src/stm32l4xx_hal.c **** 
 269:Drivers/STM32L4xx_HAL_Driver/Src/stm32l4xx_hal.c **** /**
 270:Drivers/STM32L4xx_HAL_Driver/Src/stm32l4xx_hal.c ****   * @}
 271:Drivers/STM32L4xx_HAL_Driver/Src/stm32l4xx_hal.c ****   */
 272:Drivers/STM32L4xx_HAL_Driver/Src/stm32l4xx_hal.c **** 
 273:Drivers/STM32L4xx_HAL_Driver/Src/stm32l4xx_hal.c **** /** @defgroup HAL_Exported_Functions_Group2 HAL Control functions
 274:Drivers/STM32L4xx_HAL_Driver/Src/stm32l4xx_hal.c ****  *  @brief    HAL Control functions
 275:Drivers/STM32L4xx_HAL_Driver/Src/stm32l4xx_hal.c ****  *
 276:Drivers/STM32L4xx_HAL_Driver/Src/stm32l4xx_hal.c **** @verbatim
 277:Drivers/STM32L4xx_HAL_Driver/Src/stm32l4xx_hal.c ****  ===============================================================================
 278:Drivers/STM32L4xx_HAL_Driver/Src/stm32l4xx_hal.c ****                       ##### HAL Control functions #####
 279:Drivers/STM32L4xx_HAL_Driver/Src/stm32l4xx_hal.c ****  ===============================================================================
 280:Drivers/STM32L4xx_HAL_Driver/Src/stm32l4xx_hal.c ****     [..]  This section provides functions allowing to:
 281:Drivers/STM32L4xx_HAL_Driver/Src/stm32l4xx_hal.c ****       (+) Provide a tick value in millisecond
 282:Drivers/STM32L4xx_HAL_Driver/Src/stm32l4xx_hal.c ****       (+) Provide a blocking delay in millisecond
 283:Drivers/STM32L4xx_HAL_Driver/Src/stm32l4xx_hal.c ****       (+) Suspend the time base source interrupt
 284:Drivers/STM32L4xx_HAL_Driver/Src/stm32l4xx_hal.c ****       (+) Resume the time base source interrupt
 285:Drivers/STM32L4xx_HAL_Driver/Src/stm32l4xx_hal.c ****       (+) Get the HAL API driver version
 286:Drivers/STM32L4xx_HAL_Driver/Src/stm32l4xx_hal.c ****       (+) Get the device identifier
 287:Drivers/STM32L4xx_HAL_Driver/Src/stm32l4xx_hal.c ****       (+) Get the device revision identifier
 288:Drivers/STM32L4xx_HAL_Driver/Src/stm32l4xx_hal.c **** 
 289:Drivers/STM32L4xx_HAL_Driver/Src/stm32l4xx_hal.c **** @endverbatim
 290:Drivers/STM32L4xx_HAL_Driver/Src/stm32l4xx_hal.c ****   * @{
 291:Drivers/STM32L4xx_HAL_Driver/Src/stm32l4xx_hal.c ****   */
 292:Drivers/STM32L4xx_HAL_Driver/Src/stm32l4xx_hal.c **** 
 293:Drivers/STM32L4xx_HAL_Driver/Src/stm32l4xx_hal.c **** /**
 294:Drivers/STM32L4xx_HAL_Driver/Src/stm32l4xx_hal.c ****   * @brief This function is called to increment a global variable "uwTick"
 295:Drivers/STM32L4xx_HAL_Driver/Src/stm32l4xx_hal.c ****   *        used as application time base.
 296:Drivers/STM32L4xx_HAL_Driver/Src/stm32l4xx_hal.c ****   * @note In the default implementation, this variable is incremented each 1ms
 297:Drivers/STM32L4xx_HAL_Driver/Src/stm32l4xx_hal.c ****   *       in SysTick ISR.
 298:Drivers/STM32L4xx_HAL_Driver/Src/stm32l4xx_hal.c ****  * @note This function is declared as __weak to be overwritten in case of other
 299:Drivers/STM32L4xx_HAL_Driver/Src/stm32l4xx_hal.c ****   *      implementations in user file.
 300:Drivers/STM32L4xx_HAL_Driver/Src/stm32l4xx_hal.c ****   * @retval None
ARM GAS  /tmp/cck6MdJW.s 			page 10


 301:Drivers/STM32L4xx_HAL_Driver/Src/stm32l4xx_hal.c ****   */
 302:Drivers/STM32L4xx_HAL_Driver/Src/stm32l4xx_hal.c **** __weak void HAL_IncTick(void)
 303:Drivers/STM32L4xx_HAL_Driver/Src/stm32l4xx_hal.c **** {
 206              		.loc 1 303 0
 207              		.cfi_startproc
 208              		@ args = 0, pretend = 0, frame = 0
 209              		@ frame_needed = 0, uses_anonymous_args = 0
 210              		@ link register save eliminated.
 304:Drivers/STM32L4xx_HAL_Driver/Src/stm32l4xx_hal.c ****   uwTick++;
 211              		.loc 1 304 0
 212 0000 024A     		ldr	r2, .L14
 213 0002 1368     		ldr	r3, [r2]
 214 0004 0133     		adds	r3, r3, #1
 215 0006 1360     		str	r3, [r2]
 216 0008 7047     		bx	lr
 217              	.L15:
 218 000a 00BF     		.align	2
 219              	.L14:
 220 000c 00000000 		.word	uwTick
 221              		.cfi_endproc
 222              	.LFE1504:
 224              		.section	.text.HAL_GetTick,"ax",%progbits
 225              		.align	1
 226              		.weak	HAL_GetTick
 227              		.syntax unified
 228              		.thumb
 229              		.thumb_func
 230              		.fpu fpv4-sp-d16
 232              	HAL_GetTick:
 233              	.LFB1505:
 305:Drivers/STM32L4xx_HAL_Driver/Src/stm32l4xx_hal.c **** }
 306:Drivers/STM32L4xx_HAL_Driver/Src/stm32l4xx_hal.c **** 
 307:Drivers/STM32L4xx_HAL_Driver/Src/stm32l4xx_hal.c **** /**
 308:Drivers/STM32L4xx_HAL_Driver/Src/stm32l4xx_hal.c ****   * @brief Provide a tick value in millisecond.
 309:Drivers/STM32L4xx_HAL_Driver/Src/stm32l4xx_hal.c ****   * @note This function is declared as __weak to be overwritten in case of other
 310:Drivers/STM32L4xx_HAL_Driver/Src/stm32l4xx_hal.c ****   *       implementations in user file.
 311:Drivers/STM32L4xx_HAL_Driver/Src/stm32l4xx_hal.c ****   * @retval tick value
 312:Drivers/STM32L4xx_HAL_Driver/Src/stm32l4xx_hal.c ****   */
 313:Drivers/STM32L4xx_HAL_Driver/Src/stm32l4xx_hal.c **** __weak uint32_t HAL_GetTick(void)
 314:Drivers/STM32L4xx_HAL_Driver/Src/stm32l4xx_hal.c **** {
 234              		.loc 1 314 0
 235              		.cfi_startproc
 236              		@ args = 0, pretend = 0, frame = 0
 237              		@ frame_needed = 0, uses_anonymous_args = 0
 238              		@ link register save eliminated.
 315:Drivers/STM32L4xx_HAL_Driver/Src/stm32l4xx_hal.c ****   return uwTick;
 239              		.loc 1 315 0
 240 0000 014B     		ldr	r3, .L17
 241 0002 1868     		ldr	r0, [r3]
 316:Drivers/STM32L4xx_HAL_Driver/Src/stm32l4xx_hal.c **** }
 242              		.loc 1 316 0
 243 0004 7047     		bx	lr
 244              	.L18:
 245 0006 00BF     		.align	2
 246              	.L17:
 247 0008 00000000 		.word	uwTick
 248              		.cfi_endproc
ARM GAS  /tmp/cck6MdJW.s 			page 11


 249              	.LFE1505:
 251              		.section	.text.HAL_Delay,"ax",%progbits
 252              		.align	1
 253              		.weak	HAL_Delay
 254              		.syntax unified
 255              		.thumb
 256              		.thumb_func
 257              		.fpu fpv4-sp-d16
 259              	HAL_Delay:
 260              	.LFB1506:
 317:Drivers/STM32L4xx_HAL_Driver/Src/stm32l4xx_hal.c **** 
 318:Drivers/STM32L4xx_HAL_Driver/Src/stm32l4xx_hal.c **** /**
 319:Drivers/STM32L4xx_HAL_Driver/Src/stm32l4xx_hal.c ****   * @brief This function provides minimum delay (in milliseconds) based 
 320:Drivers/STM32L4xx_HAL_Driver/Src/stm32l4xx_hal.c ****   *        on variable incremented. 
 321:Drivers/STM32L4xx_HAL_Driver/Src/stm32l4xx_hal.c ****   * @note In the default implementation , SysTick timer is the source of time base.
 322:Drivers/STM32L4xx_HAL_Driver/Src/stm32l4xx_hal.c ****   *       It is used to generate interrupts at regular time intervals where uwTick
 323:Drivers/STM32L4xx_HAL_Driver/Src/stm32l4xx_hal.c ****   *       is incremented.
 324:Drivers/STM32L4xx_HAL_Driver/Src/stm32l4xx_hal.c ****   * @note This function is declared as __weak to be overwritten in case of other
 325:Drivers/STM32L4xx_HAL_Driver/Src/stm32l4xx_hal.c ****   *       implementations in user file.
 326:Drivers/STM32L4xx_HAL_Driver/Src/stm32l4xx_hal.c ****   * @param Delay  specifies the delay time length, in milliseconds.
 327:Drivers/STM32L4xx_HAL_Driver/Src/stm32l4xx_hal.c ****   * @retval None
 328:Drivers/STM32L4xx_HAL_Driver/Src/stm32l4xx_hal.c ****   */
 329:Drivers/STM32L4xx_HAL_Driver/Src/stm32l4xx_hal.c **** __weak void HAL_Delay(uint32_t Delay)
 330:Drivers/STM32L4xx_HAL_Driver/Src/stm32l4xx_hal.c **** {
 261              		.loc 1 330 0
 262              		.cfi_startproc
 263              		@ args = 0, pretend = 0, frame = 0
 264              		@ frame_needed = 0, uses_anonymous_args = 0
 265              	.LVL9:
 266 0000 38B5     		push	{r3, r4, r5, lr}
 267              	.LCFI3:
 268              		.cfi_def_cfa_offset 16
 269              		.cfi_offset 3, -16
 270              		.cfi_offset 4, -12
 271              		.cfi_offset 5, -8
 272              		.cfi_offset 14, -4
 273 0002 0446     		mov	r4, r0
 331:Drivers/STM32L4xx_HAL_Driver/Src/stm32l4xx_hal.c ****   uint32_t tickstart = HAL_GetTick();
 274              		.loc 1 331 0
 275 0004 FFF7FEFF 		bl	HAL_GetTick
 276              	.LVL10:
 277 0008 0546     		mov	r5, r0
 278              	.LVL11:
 332:Drivers/STM32L4xx_HAL_Driver/Src/stm32l4xx_hal.c ****   uint32_t wait = Delay;
 333:Drivers/STM32L4xx_HAL_Driver/Src/stm32l4xx_hal.c **** 
 334:Drivers/STM32L4xx_HAL_Driver/Src/stm32l4xx_hal.c ****   /* Add a period to guaranty minimum wait */
 335:Drivers/STM32L4xx_HAL_Driver/Src/stm32l4xx_hal.c ****   if (wait < HAL_MAX_DELAY)
 279              		.loc 1 335 0
 280 000a B4F1FF3F 		cmp	r4, #-1
 281 000e 00D0     		beq	.L21
 336:Drivers/STM32L4xx_HAL_Driver/Src/stm32l4xx_hal.c ****   {
 337:Drivers/STM32L4xx_HAL_Driver/Src/stm32l4xx_hal.c ****     wait++;
 282              		.loc 1 337 0
 283 0010 0134     		adds	r4, r4, #1
 284              	.LVL12:
 285              	.L21:
 338:Drivers/STM32L4xx_HAL_Driver/Src/stm32l4xx_hal.c ****   } 
ARM GAS  /tmp/cck6MdJW.s 			page 12


 339:Drivers/STM32L4xx_HAL_Driver/Src/stm32l4xx_hal.c **** 
 340:Drivers/STM32L4xx_HAL_Driver/Src/stm32l4xx_hal.c ****   while((HAL_GetTick() - tickstart) < wait)
 286              		.loc 1 340 0 discriminator 1
 287 0012 FFF7FEFF 		bl	HAL_GetTick
 288              	.LVL13:
 289 0016 401B     		subs	r0, r0, r5
 290 0018 8442     		cmp	r4, r0
 291 001a FAD8     		bhi	.L21
 341:Drivers/STM32L4xx_HAL_Driver/Src/stm32l4xx_hal.c ****   {
 342:Drivers/STM32L4xx_HAL_Driver/Src/stm32l4xx_hal.c ****   }
 343:Drivers/STM32L4xx_HAL_Driver/Src/stm32l4xx_hal.c **** }
 292              		.loc 1 343 0
 293 001c 38BD     		pop	{r3, r4, r5, pc}
 294              		.cfi_endproc
 295              	.LFE1506:
 297              		.section	.text.HAL_SuspendTick,"ax",%progbits
 298              		.align	1
 299              		.weak	HAL_SuspendTick
 300              		.syntax unified
 301              		.thumb
 302              		.thumb_func
 303              		.fpu fpv4-sp-d16
 305              	HAL_SuspendTick:
 306              	.LFB1507:
 344:Drivers/STM32L4xx_HAL_Driver/Src/stm32l4xx_hal.c **** 
 345:Drivers/STM32L4xx_HAL_Driver/Src/stm32l4xx_hal.c **** /**
 346:Drivers/STM32L4xx_HAL_Driver/Src/stm32l4xx_hal.c ****   * @brief Suspend Tick increment.
 347:Drivers/STM32L4xx_HAL_Driver/Src/stm32l4xx_hal.c ****   * @note In the default implementation , SysTick timer is the source of time base. It is
 348:Drivers/STM32L4xx_HAL_Driver/Src/stm32l4xx_hal.c ****   *       used to generate interrupts at regular time intervals. Once HAL_SuspendTick()
 349:Drivers/STM32L4xx_HAL_Driver/Src/stm32l4xx_hal.c ****   *       is called, the SysTick interrupt will be disabled and so Tick increment
 350:Drivers/STM32L4xx_HAL_Driver/Src/stm32l4xx_hal.c ****   *       is suspended.
 351:Drivers/STM32L4xx_HAL_Driver/Src/stm32l4xx_hal.c ****   * @note This function is declared as __weak to be overwritten in case of other
 352:Drivers/STM32L4xx_HAL_Driver/Src/stm32l4xx_hal.c ****   *       implementations in user file.
 353:Drivers/STM32L4xx_HAL_Driver/Src/stm32l4xx_hal.c ****   * @retval None
 354:Drivers/STM32L4xx_HAL_Driver/Src/stm32l4xx_hal.c ****   */
 355:Drivers/STM32L4xx_HAL_Driver/Src/stm32l4xx_hal.c **** __weak void HAL_SuspendTick(void)
 356:Drivers/STM32L4xx_HAL_Driver/Src/stm32l4xx_hal.c **** {
 307              		.loc 1 356 0
 308              		.cfi_startproc
 309              		@ args = 0, pretend = 0, frame = 0
 310              		@ frame_needed = 0, uses_anonymous_args = 0
 311              		@ link register save eliminated.
 357:Drivers/STM32L4xx_HAL_Driver/Src/stm32l4xx_hal.c ****   /* Disable SysTick Interrupt */
 358:Drivers/STM32L4xx_HAL_Driver/Src/stm32l4xx_hal.c ****   SysTick->CTRL &= ~SysTick_CTRL_TICKINT_Msk;
 312              		.loc 1 358 0
 313 0000 024A     		ldr	r2, .L24
 314 0002 1368     		ldr	r3, [r2]
 315 0004 23F00203 		bic	r3, r3, #2
 316 0008 1360     		str	r3, [r2]
 317 000a 7047     		bx	lr
 318              	.L25:
 319              		.align	2
 320              	.L24:
 321 000c 10E000E0 		.word	-536813552
 322              		.cfi_endproc
 323              	.LFE1507:
 325              		.section	.text.HAL_ResumeTick,"ax",%progbits
ARM GAS  /tmp/cck6MdJW.s 			page 13


 326              		.align	1
 327              		.weak	HAL_ResumeTick
 328              		.syntax unified
 329              		.thumb
 330              		.thumb_func
 331              		.fpu fpv4-sp-d16
 333              	HAL_ResumeTick:
 334              	.LFB1508:
 359:Drivers/STM32L4xx_HAL_Driver/Src/stm32l4xx_hal.c **** }
 360:Drivers/STM32L4xx_HAL_Driver/Src/stm32l4xx_hal.c **** 
 361:Drivers/STM32L4xx_HAL_Driver/Src/stm32l4xx_hal.c **** /**
 362:Drivers/STM32L4xx_HAL_Driver/Src/stm32l4xx_hal.c ****   * @brief Resume Tick increment.
 363:Drivers/STM32L4xx_HAL_Driver/Src/stm32l4xx_hal.c ****   * @note In the default implementation , SysTick timer is the source of time base. It is
 364:Drivers/STM32L4xx_HAL_Driver/Src/stm32l4xx_hal.c ****   *       used to generate interrupts at regular time intervals. Once HAL_ResumeTick()
 365:Drivers/STM32L4xx_HAL_Driver/Src/stm32l4xx_hal.c ****   *       is called, the SysTick interrupt will be enabled and so Tick increment
 366:Drivers/STM32L4xx_HAL_Driver/Src/stm32l4xx_hal.c ****   *       is resumed.
 367:Drivers/STM32L4xx_HAL_Driver/Src/stm32l4xx_hal.c ****   * @note This function is declared as __weak to be overwritten in case of other
 368:Drivers/STM32L4xx_HAL_Driver/Src/stm32l4xx_hal.c ****   *       implementations in user file.
 369:Drivers/STM32L4xx_HAL_Driver/Src/stm32l4xx_hal.c ****   * @retval None
 370:Drivers/STM32L4xx_HAL_Driver/Src/stm32l4xx_hal.c ****   */
 371:Drivers/STM32L4xx_HAL_Driver/Src/stm32l4xx_hal.c **** __weak void HAL_ResumeTick(void)
 372:Drivers/STM32L4xx_HAL_Driver/Src/stm32l4xx_hal.c **** {
 335              		.loc 1 372 0
 336              		.cfi_startproc
 337              		@ args = 0, pretend = 0, frame = 0
 338              		@ frame_needed = 0, uses_anonymous_args = 0
 339              		@ link register save eliminated.
 373:Drivers/STM32L4xx_HAL_Driver/Src/stm32l4xx_hal.c ****   /* Enable SysTick Interrupt */
 374:Drivers/STM32L4xx_HAL_Driver/Src/stm32l4xx_hal.c ****   SysTick->CTRL  |= SysTick_CTRL_TICKINT_Msk;
 340              		.loc 1 374 0
 341 0000 024A     		ldr	r2, .L27
 342 0002 1368     		ldr	r3, [r2]
 343 0004 43F00203 		orr	r3, r3, #2
 344 0008 1360     		str	r3, [r2]
 345 000a 7047     		bx	lr
 346              	.L28:
 347              		.align	2
 348              	.L27:
 349 000c 10E000E0 		.word	-536813552
 350              		.cfi_endproc
 351              	.LFE1508:
 353              		.section	.text.HAL_GetHalVersion,"ax",%progbits
 354              		.align	1
 355              		.global	HAL_GetHalVersion
 356              		.syntax unified
 357              		.thumb
 358              		.thumb_func
 359              		.fpu fpv4-sp-d16
 361              	HAL_GetHalVersion:
 362              	.LFB1509:
 375:Drivers/STM32L4xx_HAL_Driver/Src/stm32l4xx_hal.c **** }
 376:Drivers/STM32L4xx_HAL_Driver/Src/stm32l4xx_hal.c **** 
 377:Drivers/STM32L4xx_HAL_Driver/Src/stm32l4xx_hal.c **** /**
 378:Drivers/STM32L4xx_HAL_Driver/Src/stm32l4xx_hal.c ****   * @brief  Return the HAL revision.
 379:Drivers/STM32L4xx_HAL_Driver/Src/stm32l4xx_hal.c ****   * @retval version : 0xXYZR (8bits for each decimal, R for RC)
 380:Drivers/STM32L4xx_HAL_Driver/Src/stm32l4xx_hal.c ****   */
 381:Drivers/STM32L4xx_HAL_Driver/Src/stm32l4xx_hal.c **** uint32_t HAL_GetHalVersion(void)
ARM GAS  /tmp/cck6MdJW.s 			page 14


 382:Drivers/STM32L4xx_HAL_Driver/Src/stm32l4xx_hal.c **** {
 363              		.loc 1 382 0
 364              		.cfi_startproc
 365              		@ args = 0, pretend = 0, frame = 0
 366              		@ frame_needed = 0, uses_anonymous_args = 0
 367              		@ link register save eliminated.
 383:Drivers/STM32L4xx_HAL_Driver/Src/stm32l4xx_hal.c ****  return __STM32L4xx_HAL_VERSION;
 384:Drivers/STM32L4xx_HAL_Driver/Src/stm32l4xx_hal.c **** }
 368              		.loc 1 384 0
 369 0000 4FF08470 		mov	r0, #17301504
 370 0004 7047     		bx	lr
 371              		.cfi_endproc
 372              	.LFE1509:
 374              		.section	.text.HAL_GetREVID,"ax",%progbits
 375              		.align	1
 376              		.global	HAL_GetREVID
 377              		.syntax unified
 378              		.thumb
 379              		.thumb_func
 380              		.fpu fpv4-sp-d16
 382              	HAL_GetREVID:
 383              	.LFB1510:
 385:Drivers/STM32L4xx_HAL_Driver/Src/stm32l4xx_hal.c **** 
 386:Drivers/STM32L4xx_HAL_Driver/Src/stm32l4xx_hal.c **** /**
 387:Drivers/STM32L4xx_HAL_Driver/Src/stm32l4xx_hal.c ****   * @brief  Return the device revision identifier.
 388:Drivers/STM32L4xx_HAL_Driver/Src/stm32l4xx_hal.c ****   * @retval Device revision identifier
 389:Drivers/STM32L4xx_HAL_Driver/Src/stm32l4xx_hal.c ****   */
 390:Drivers/STM32L4xx_HAL_Driver/Src/stm32l4xx_hal.c **** uint32_t HAL_GetREVID(void)
 391:Drivers/STM32L4xx_HAL_Driver/Src/stm32l4xx_hal.c **** {
 384              		.loc 1 391 0
 385              		.cfi_startproc
 386              		@ args = 0, pretend = 0, frame = 0
 387              		@ frame_needed = 0, uses_anonymous_args = 0
 388              		@ link register save eliminated.
 392:Drivers/STM32L4xx_HAL_Driver/Src/stm32l4xx_hal.c ****    return((DBGMCU->IDCODE & DBGMCU_IDCODE_REV_ID) >> 16);
 389              		.loc 1 392 0
 390 0000 014B     		ldr	r3, .L31
 391 0002 1868     		ldr	r0, [r3]
 393:Drivers/STM32L4xx_HAL_Driver/Src/stm32l4xx_hal.c **** }
 392              		.loc 1 393 0
 393 0004 000C     		lsrs	r0, r0, #16
 394 0006 7047     		bx	lr
 395              	.L32:
 396              		.align	2
 397              	.L31:
 398 0008 002004E0 		.word	-536600576
 399              		.cfi_endproc
 400              	.LFE1510:
 402              		.section	.text.HAL_GetDEVID,"ax",%progbits
 403              		.align	1
 404              		.global	HAL_GetDEVID
 405              		.syntax unified
 406              		.thumb
 407              		.thumb_func
 408              		.fpu fpv4-sp-d16
 410              	HAL_GetDEVID:
 411              	.LFB1511:
ARM GAS  /tmp/cck6MdJW.s 			page 15


 394:Drivers/STM32L4xx_HAL_Driver/Src/stm32l4xx_hal.c **** 
 395:Drivers/STM32L4xx_HAL_Driver/Src/stm32l4xx_hal.c **** /**
 396:Drivers/STM32L4xx_HAL_Driver/Src/stm32l4xx_hal.c ****   * @brief  Return the device identifier.
 397:Drivers/STM32L4xx_HAL_Driver/Src/stm32l4xx_hal.c ****   * @retval Device identifier
 398:Drivers/STM32L4xx_HAL_Driver/Src/stm32l4xx_hal.c ****   */
 399:Drivers/STM32L4xx_HAL_Driver/Src/stm32l4xx_hal.c **** uint32_t HAL_GetDEVID(void)
 400:Drivers/STM32L4xx_HAL_Driver/Src/stm32l4xx_hal.c **** {
 412              		.loc 1 400 0
 413              		.cfi_startproc
 414              		@ args = 0, pretend = 0, frame = 0
 415              		@ frame_needed = 0, uses_anonymous_args = 0
 416              		@ link register save eliminated.
 401:Drivers/STM32L4xx_HAL_Driver/Src/stm32l4xx_hal.c ****    return(DBGMCU->IDCODE & DBGMCU_IDCODE_DEV_ID);
 417              		.loc 1 401 0
 418 0000 024B     		ldr	r3, .L34
 419 0002 1868     		ldr	r0, [r3]
 402:Drivers/STM32L4xx_HAL_Driver/Src/stm32l4xx_hal.c **** }
 420              		.loc 1 402 0
 421 0004 C0F30B00 		ubfx	r0, r0, #0, #12
 422 0008 7047     		bx	lr
 423              	.L35:
 424 000a 00BF     		.align	2
 425              	.L34:
 426 000c 002004E0 		.word	-536600576
 427              		.cfi_endproc
 428              	.LFE1511:
 430              		.section	.text.HAL_GetUIDw0,"ax",%progbits
 431              		.align	1
 432              		.global	HAL_GetUIDw0
 433              		.syntax unified
 434              		.thumb
 435              		.thumb_func
 436              		.fpu fpv4-sp-d16
 438              	HAL_GetUIDw0:
 439              	.LFB1512:
 403:Drivers/STM32L4xx_HAL_Driver/Src/stm32l4xx_hal.c **** 
 404:Drivers/STM32L4xx_HAL_Driver/Src/stm32l4xx_hal.c **** /**
 405:Drivers/STM32L4xx_HAL_Driver/Src/stm32l4xx_hal.c ****   * @brief  Return the first word of the unique device identifier (UID based on 96 bits)
 406:Drivers/STM32L4xx_HAL_Driver/Src/stm32l4xx_hal.c ****   * @retval Device identifier
 407:Drivers/STM32L4xx_HAL_Driver/Src/stm32l4xx_hal.c ****   */
 408:Drivers/STM32L4xx_HAL_Driver/Src/stm32l4xx_hal.c **** uint32_t HAL_GetUIDw0(void)
 409:Drivers/STM32L4xx_HAL_Driver/Src/stm32l4xx_hal.c **** {
 440              		.loc 1 409 0
 441              		.cfi_startproc
 442              		@ args = 0, pretend = 0, frame = 0
 443              		@ frame_needed = 0, uses_anonymous_args = 0
 444              		@ link register save eliminated.
 410:Drivers/STM32L4xx_HAL_Driver/Src/stm32l4xx_hal.c ****    return(READ_REG(*((uint32_t *)UID_BASE)));
 411:Drivers/STM32L4xx_HAL_Driver/Src/stm32l4xx_hal.c **** }
 445              		.loc 1 411 0
 446 0000 014B     		ldr	r3, .L37
 447 0002 1868     		ldr	r0, [r3]
 448 0004 7047     		bx	lr
 449              	.L38:
 450 0006 00BF     		.align	2
 451              	.L37:
 452 0008 9075FF1F 		.word	536835472
ARM GAS  /tmp/cck6MdJW.s 			page 16


 453              		.cfi_endproc
 454              	.LFE1512:
 456              		.section	.text.HAL_GetUIDw1,"ax",%progbits
 457              		.align	1
 458              		.global	HAL_GetUIDw1
 459              		.syntax unified
 460              		.thumb
 461              		.thumb_func
 462              		.fpu fpv4-sp-d16
 464              	HAL_GetUIDw1:
 465              	.LFB1513:
 412:Drivers/STM32L4xx_HAL_Driver/Src/stm32l4xx_hal.c **** 
 413:Drivers/STM32L4xx_HAL_Driver/Src/stm32l4xx_hal.c **** /**
 414:Drivers/STM32L4xx_HAL_Driver/Src/stm32l4xx_hal.c ****   * @brief  Return the second word of the unique device identifier (UID based on 96 bits)
 415:Drivers/STM32L4xx_HAL_Driver/Src/stm32l4xx_hal.c ****   * @retval Device identifier
 416:Drivers/STM32L4xx_HAL_Driver/Src/stm32l4xx_hal.c ****   */
 417:Drivers/STM32L4xx_HAL_Driver/Src/stm32l4xx_hal.c **** uint32_t HAL_GetUIDw1(void)
 418:Drivers/STM32L4xx_HAL_Driver/Src/stm32l4xx_hal.c **** {
 466              		.loc 1 418 0
 467              		.cfi_startproc
 468              		@ args = 0, pretend = 0, frame = 0
 469              		@ frame_needed = 0, uses_anonymous_args = 0
 470              		@ link register save eliminated.
 419:Drivers/STM32L4xx_HAL_Driver/Src/stm32l4xx_hal.c ****    return(READ_REG(*((uint32_t *)(UID_BASE + 4U))));
 420:Drivers/STM32L4xx_HAL_Driver/Src/stm32l4xx_hal.c **** }
 471              		.loc 1 420 0
 472 0000 014B     		ldr	r3, .L40
 473 0002 1868     		ldr	r0, [r3]
 474 0004 7047     		bx	lr
 475              	.L41:
 476 0006 00BF     		.align	2
 477              	.L40:
 478 0008 9475FF1F 		.word	536835476
 479              		.cfi_endproc
 480              	.LFE1513:
 482              		.section	.text.HAL_GetUIDw2,"ax",%progbits
 483              		.align	1
 484              		.global	HAL_GetUIDw2
 485              		.syntax unified
 486              		.thumb
 487              		.thumb_func
 488              		.fpu fpv4-sp-d16
 490              	HAL_GetUIDw2:
 491              	.LFB1514:
 421:Drivers/STM32L4xx_HAL_Driver/Src/stm32l4xx_hal.c **** 
 422:Drivers/STM32L4xx_HAL_Driver/Src/stm32l4xx_hal.c **** /**
 423:Drivers/STM32L4xx_HAL_Driver/Src/stm32l4xx_hal.c ****   * @brief  Return the third word of the unique device identifier (UID based on 96 bits)
 424:Drivers/STM32L4xx_HAL_Driver/Src/stm32l4xx_hal.c ****   * @retval Device identifier
 425:Drivers/STM32L4xx_HAL_Driver/Src/stm32l4xx_hal.c ****   */
 426:Drivers/STM32L4xx_HAL_Driver/Src/stm32l4xx_hal.c **** uint32_t HAL_GetUIDw2(void)
 427:Drivers/STM32L4xx_HAL_Driver/Src/stm32l4xx_hal.c **** {
 492              		.loc 1 427 0
 493              		.cfi_startproc
 494              		@ args = 0, pretend = 0, frame = 0
 495              		@ frame_needed = 0, uses_anonymous_args = 0
 496              		@ link register save eliminated.
 428:Drivers/STM32L4xx_HAL_Driver/Src/stm32l4xx_hal.c ****    return(READ_REG(*((uint32_t *)(UID_BASE + 8U))));
ARM GAS  /tmp/cck6MdJW.s 			page 17


 429:Drivers/STM32L4xx_HAL_Driver/Src/stm32l4xx_hal.c **** }
 497              		.loc 1 429 0
 498 0000 014B     		ldr	r3, .L43
 499 0002 1868     		ldr	r0, [r3]
 500 0004 7047     		bx	lr
 501              	.L44:
 502 0006 00BF     		.align	2
 503              	.L43:
 504 0008 9875FF1F 		.word	536835480
 505              		.cfi_endproc
 506              	.LFE1514:
 508              		.section	.text.HAL_DBGMCU_EnableDBGSleepMode,"ax",%progbits
 509              		.align	1
 510              		.global	HAL_DBGMCU_EnableDBGSleepMode
 511              		.syntax unified
 512              		.thumb
 513              		.thumb_func
 514              		.fpu fpv4-sp-d16
 516              	HAL_DBGMCU_EnableDBGSleepMode:
 517              	.LFB1515:
 430:Drivers/STM32L4xx_HAL_Driver/Src/stm32l4xx_hal.c **** 
 431:Drivers/STM32L4xx_HAL_Driver/Src/stm32l4xx_hal.c **** /**
 432:Drivers/STM32L4xx_HAL_Driver/Src/stm32l4xx_hal.c ****   * @}
 433:Drivers/STM32L4xx_HAL_Driver/Src/stm32l4xx_hal.c ****   */
 434:Drivers/STM32L4xx_HAL_Driver/Src/stm32l4xx_hal.c **** 
 435:Drivers/STM32L4xx_HAL_Driver/Src/stm32l4xx_hal.c **** /** @defgroup HAL_Exported_Functions_Group3 HAL Debug functions
 436:Drivers/STM32L4xx_HAL_Driver/Src/stm32l4xx_hal.c ****  *  @brief    HAL Debug functions
 437:Drivers/STM32L4xx_HAL_Driver/Src/stm32l4xx_hal.c ****  *
 438:Drivers/STM32L4xx_HAL_Driver/Src/stm32l4xx_hal.c **** @verbatim
 439:Drivers/STM32L4xx_HAL_Driver/Src/stm32l4xx_hal.c ****  ===============================================================================
 440:Drivers/STM32L4xx_HAL_Driver/Src/stm32l4xx_hal.c ****                       ##### HAL Debug functions #####
 441:Drivers/STM32L4xx_HAL_Driver/Src/stm32l4xx_hal.c ****  ===============================================================================
 442:Drivers/STM32L4xx_HAL_Driver/Src/stm32l4xx_hal.c ****     [..]  This section provides functions allowing to:
 443:Drivers/STM32L4xx_HAL_Driver/Src/stm32l4xx_hal.c ****       (+) Enable/Disable Debug module during SLEEP mode
 444:Drivers/STM32L4xx_HAL_Driver/Src/stm32l4xx_hal.c ****       (+) Enable/Disable Debug module during STOP0/STOP1/STOP2 modes
 445:Drivers/STM32L4xx_HAL_Driver/Src/stm32l4xx_hal.c ****       (+) Enable/Disable Debug module during STANDBY mode
 446:Drivers/STM32L4xx_HAL_Driver/Src/stm32l4xx_hal.c **** 
 447:Drivers/STM32L4xx_HAL_Driver/Src/stm32l4xx_hal.c **** @endverbatim
 448:Drivers/STM32L4xx_HAL_Driver/Src/stm32l4xx_hal.c ****   * @{
 449:Drivers/STM32L4xx_HAL_Driver/Src/stm32l4xx_hal.c ****   */
 450:Drivers/STM32L4xx_HAL_Driver/Src/stm32l4xx_hal.c **** 
 451:Drivers/STM32L4xx_HAL_Driver/Src/stm32l4xx_hal.c **** /**
 452:Drivers/STM32L4xx_HAL_Driver/Src/stm32l4xx_hal.c ****   * @brief  Enable the Debug Module during SLEEP mode.
 453:Drivers/STM32L4xx_HAL_Driver/Src/stm32l4xx_hal.c ****   * @retval None
 454:Drivers/STM32L4xx_HAL_Driver/Src/stm32l4xx_hal.c ****   */
 455:Drivers/STM32L4xx_HAL_Driver/Src/stm32l4xx_hal.c **** void HAL_DBGMCU_EnableDBGSleepMode(void)
 456:Drivers/STM32L4xx_HAL_Driver/Src/stm32l4xx_hal.c **** {
 518              		.loc 1 456 0
 519              		.cfi_startproc
 520              		@ args = 0, pretend = 0, frame = 0
 521              		@ frame_needed = 0, uses_anonymous_args = 0
 522              		@ link register save eliminated.
 457:Drivers/STM32L4xx_HAL_Driver/Src/stm32l4xx_hal.c ****   SET_BIT(DBGMCU->CR, DBGMCU_CR_DBG_SLEEP);
 523              		.loc 1 457 0
 524 0000 024A     		ldr	r2, .L46
 525 0002 5368     		ldr	r3, [r2, #4]
 526 0004 43F00103 		orr	r3, r3, #1
ARM GAS  /tmp/cck6MdJW.s 			page 18


 527 0008 5360     		str	r3, [r2, #4]
 528 000a 7047     		bx	lr
 529              	.L47:
 530              		.align	2
 531              	.L46:
 532 000c 002004E0 		.word	-536600576
 533              		.cfi_endproc
 534              	.LFE1515:
 536              		.section	.text.HAL_DBGMCU_DisableDBGSleepMode,"ax",%progbits
 537              		.align	1
 538              		.global	HAL_DBGMCU_DisableDBGSleepMode
 539              		.syntax unified
 540              		.thumb
 541              		.thumb_func
 542              		.fpu fpv4-sp-d16
 544              	HAL_DBGMCU_DisableDBGSleepMode:
 545              	.LFB1516:
 458:Drivers/STM32L4xx_HAL_Driver/Src/stm32l4xx_hal.c **** }
 459:Drivers/STM32L4xx_HAL_Driver/Src/stm32l4xx_hal.c **** 
 460:Drivers/STM32L4xx_HAL_Driver/Src/stm32l4xx_hal.c **** /**
 461:Drivers/STM32L4xx_HAL_Driver/Src/stm32l4xx_hal.c ****   * @brief  Disable the Debug Module during SLEEP mode.
 462:Drivers/STM32L4xx_HAL_Driver/Src/stm32l4xx_hal.c ****   * @retval None
 463:Drivers/STM32L4xx_HAL_Driver/Src/stm32l4xx_hal.c ****   */
 464:Drivers/STM32L4xx_HAL_Driver/Src/stm32l4xx_hal.c **** void HAL_DBGMCU_DisableDBGSleepMode(void)
 465:Drivers/STM32L4xx_HAL_Driver/Src/stm32l4xx_hal.c **** {
 546              		.loc 1 465 0
 547              		.cfi_startproc
 548              		@ args = 0, pretend = 0, frame = 0
 549              		@ frame_needed = 0, uses_anonymous_args = 0
 550              		@ link register save eliminated.
 466:Drivers/STM32L4xx_HAL_Driver/Src/stm32l4xx_hal.c ****   CLEAR_BIT(DBGMCU->CR, DBGMCU_CR_DBG_SLEEP);
 551              		.loc 1 466 0
 552 0000 024A     		ldr	r2, .L49
 553 0002 5368     		ldr	r3, [r2, #4]
 554 0004 23F00103 		bic	r3, r3, #1
 555 0008 5360     		str	r3, [r2, #4]
 556 000a 7047     		bx	lr
 557              	.L50:
 558              		.align	2
 559              	.L49:
 560 000c 002004E0 		.word	-536600576
 561              		.cfi_endproc
 562              	.LFE1516:
 564              		.section	.text.HAL_DBGMCU_EnableDBGStopMode,"ax",%progbits
 565              		.align	1
 566              		.global	HAL_DBGMCU_EnableDBGStopMode
 567              		.syntax unified
 568              		.thumb
 569              		.thumb_func
 570              		.fpu fpv4-sp-d16
 572              	HAL_DBGMCU_EnableDBGStopMode:
 573              	.LFB1517:
 467:Drivers/STM32L4xx_HAL_Driver/Src/stm32l4xx_hal.c **** }
 468:Drivers/STM32L4xx_HAL_Driver/Src/stm32l4xx_hal.c **** 
 469:Drivers/STM32L4xx_HAL_Driver/Src/stm32l4xx_hal.c **** /**
 470:Drivers/STM32L4xx_HAL_Driver/Src/stm32l4xx_hal.c ****   * @brief  Enable the Debug Module during STOP0/STOP1/STOP2 modes.
 471:Drivers/STM32L4xx_HAL_Driver/Src/stm32l4xx_hal.c ****   * @retval None
ARM GAS  /tmp/cck6MdJW.s 			page 19


 472:Drivers/STM32L4xx_HAL_Driver/Src/stm32l4xx_hal.c ****   */
 473:Drivers/STM32L4xx_HAL_Driver/Src/stm32l4xx_hal.c **** void HAL_DBGMCU_EnableDBGStopMode(void)
 474:Drivers/STM32L4xx_HAL_Driver/Src/stm32l4xx_hal.c **** {
 574              		.loc 1 474 0
 575              		.cfi_startproc
 576              		@ args = 0, pretend = 0, frame = 0
 577              		@ frame_needed = 0, uses_anonymous_args = 0
 578              		@ link register save eliminated.
 475:Drivers/STM32L4xx_HAL_Driver/Src/stm32l4xx_hal.c ****   SET_BIT(DBGMCU->CR, DBGMCU_CR_DBG_STOP);
 579              		.loc 1 475 0
 580 0000 024A     		ldr	r2, .L52
 581 0002 5368     		ldr	r3, [r2, #4]
 582 0004 43F00203 		orr	r3, r3, #2
 583 0008 5360     		str	r3, [r2, #4]
 584 000a 7047     		bx	lr
 585              	.L53:
 586              		.align	2
 587              	.L52:
 588 000c 002004E0 		.word	-536600576
 589              		.cfi_endproc
 590              	.LFE1517:
 592              		.section	.text.HAL_DBGMCU_DisableDBGStopMode,"ax",%progbits
 593              		.align	1
 594              		.global	HAL_DBGMCU_DisableDBGStopMode
 595              		.syntax unified
 596              		.thumb
 597              		.thumb_func
 598              		.fpu fpv4-sp-d16
 600              	HAL_DBGMCU_DisableDBGStopMode:
 601              	.LFB1518:
 476:Drivers/STM32L4xx_HAL_Driver/Src/stm32l4xx_hal.c **** }
 477:Drivers/STM32L4xx_HAL_Driver/Src/stm32l4xx_hal.c **** 
 478:Drivers/STM32L4xx_HAL_Driver/Src/stm32l4xx_hal.c **** /**
 479:Drivers/STM32L4xx_HAL_Driver/Src/stm32l4xx_hal.c ****   * @brief  Disable the Debug Module during STOP0/STOP1/STOP2 modes.
 480:Drivers/STM32L4xx_HAL_Driver/Src/stm32l4xx_hal.c ****   * @retval None
 481:Drivers/STM32L4xx_HAL_Driver/Src/stm32l4xx_hal.c ****   */
 482:Drivers/STM32L4xx_HAL_Driver/Src/stm32l4xx_hal.c **** void HAL_DBGMCU_DisableDBGStopMode(void)
 483:Drivers/STM32L4xx_HAL_Driver/Src/stm32l4xx_hal.c **** {
 602              		.loc 1 483 0
 603              		.cfi_startproc
 604              		@ args = 0, pretend = 0, frame = 0
 605              		@ frame_needed = 0, uses_anonymous_args = 0
 606              		@ link register save eliminated.
 484:Drivers/STM32L4xx_HAL_Driver/Src/stm32l4xx_hal.c ****   CLEAR_BIT(DBGMCU->CR, DBGMCU_CR_DBG_STOP);
 607              		.loc 1 484 0
 608 0000 024A     		ldr	r2, .L55
 609 0002 5368     		ldr	r3, [r2, #4]
 610 0004 23F00203 		bic	r3, r3, #2
 611 0008 5360     		str	r3, [r2, #4]
 612 000a 7047     		bx	lr
 613              	.L56:
 614              		.align	2
 615              	.L55:
 616 000c 002004E0 		.word	-536600576
 617              		.cfi_endproc
 618              	.LFE1518:
 620              		.section	.text.HAL_DBGMCU_EnableDBGStandbyMode,"ax",%progbits
ARM GAS  /tmp/cck6MdJW.s 			page 20


 621              		.align	1
 622              		.global	HAL_DBGMCU_EnableDBGStandbyMode
 623              		.syntax unified
 624              		.thumb
 625              		.thumb_func
 626              		.fpu fpv4-sp-d16
 628              	HAL_DBGMCU_EnableDBGStandbyMode:
 629              	.LFB1519:
 485:Drivers/STM32L4xx_HAL_Driver/Src/stm32l4xx_hal.c **** }
 486:Drivers/STM32L4xx_HAL_Driver/Src/stm32l4xx_hal.c **** 
 487:Drivers/STM32L4xx_HAL_Driver/Src/stm32l4xx_hal.c **** /**
 488:Drivers/STM32L4xx_HAL_Driver/Src/stm32l4xx_hal.c ****   * @brief  Enable the Debug Module during STANDBY mode.
 489:Drivers/STM32L4xx_HAL_Driver/Src/stm32l4xx_hal.c ****   * @retval None
 490:Drivers/STM32L4xx_HAL_Driver/Src/stm32l4xx_hal.c ****   */
 491:Drivers/STM32L4xx_HAL_Driver/Src/stm32l4xx_hal.c **** void HAL_DBGMCU_EnableDBGStandbyMode(void)
 492:Drivers/STM32L4xx_HAL_Driver/Src/stm32l4xx_hal.c **** {
 630              		.loc 1 492 0
 631              		.cfi_startproc
 632              		@ args = 0, pretend = 0, frame = 0
 633              		@ frame_needed = 0, uses_anonymous_args = 0
 634              		@ link register save eliminated.
 493:Drivers/STM32L4xx_HAL_Driver/Src/stm32l4xx_hal.c ****   SET_BIT(DBGMCU->CR, DBGMCU_CR_DBG_STANDBY);
 635              		.loc 1 493 0
 636 0000 024A     		ldr	r2, .L58
 637 0002 5368     		ldr	r3, [r2, #4]
 638 0004 43F00403 		orr	r3, r3, #4
 639 0008 5360     		str	r3, [r2, #4]
 640 000a 7047     		bx	lr
 641              	.L59:
 642              		.align	2
 643              	.L58:
 644 000c 002004E0 		.word	-536600576
 645              		.cfi_endproc
 646              	.LFE1519:
 648              		.section	.text.HAL_DBGMCU_DisableDBGStandbyMode,"ax",%progbits
 649              		.align	1
 650              		.global	HAL_DBGMCU_DisableDBGStandbyMode
 651              		.syntax unified
 652              		.thumb
 653              		.thumb_func
 654              		.fpu fpv4-sp-d16
 656              	HAL_DBGMCU_DisableDBGStandbyMode:
 657              	.LFB1520:
 494:Drivers/STM32L4xx_HAL_Driver/Src/stm32l4xx_hal.c **** }
 495:Drivers/STM32L4xx_HAL_Driver/Src/stm32l4xx_hal.c **** 
 496:Drivers/STM32L4xx_HAL_Driver/Src/stm32l4xx_hal.c **** /**
 497:Drivers/STM32L4xx_HAL_Driver/Src/stm32l4xx_hal.c ****   * @brief  Disable the Debug Module during STANDBY mode.
 498:Drivers/STM32L4xx_HAL_Driver/Src/stm32l4xx_hal.c ****   * @retval None
 499:Drivers/STM32L4xx_HAL_Driver/Src/stm32l4xx_hal.c ****   */
 500:Drivers/STM32L4xx_HAL_Driver/Src/stm32l4xx_hal.c **** void HAL_DBGMCU_DisableDBGStandbyMode(void)
 501:Drivers/STM32L4xx_HAL_Driver/Src/stm32l4xx_hal.c **** {
 658              		.loc 1 501 0
 659              		.cfi_startproc
 660              		@ args = 0, pretend = 0, frame = 0
 661              		@ frame_needed = 0, uses_anonymous_args = 0
 662              		@ link register save eliminated.
 502:Drivers/STM32L4xx_HAL_Driver/Src/stm32l4xx_hal.c ****   CLEAR_BIT(DBGMCU->CR, DBGMCU_CR_DBG_STANDBY);
ARM GAS  /tmp/cck6MdJW.s 			page 21


 663              		.loc 1 502 0
 664 0000 024A     		ldr	r2, .L61
 665 0002 5368     		ldr	r3, [r2, #4]
 666 0004 23F00403 		bic	r3, r3, #4
 667 0008 5360     		str	r3, [r2, #4]
 668 000a 7047     		bx	lr
 669              	.L62:
 670              		.align	2
 671              	.L61:
 672 000c 002004E0 		.word	-536600576
 673              		.cfi_endproc
 674              	.LFE1520:
 676              		.section	.text.HAL_SYSCFG_SRAM2Erase,"ax",%progbits
 677              		.align	1
 678              		.global	HAL_SYSCFG_SRAM2Erase
 679              		.syntax unified
 680              		.thumb
 681              		.thumb_func
 682              		.fpu fpv4-sp-d16
 684              	HAL_SYSCFG_SRAM2Erase:
 685              	.LFB1521:
 503:Drivers/STM32L4xx_HAL_Driver/Src/stm32l4xx_hal.c **** }
 504:Drivers/STM32L4xx_HAL_Driver/Src/stm32l4xx_hal.c **** 
 505:Drivers/STM32L4xx_HAL_Driver/Src/stm32l4xx_hal.c **** /**
 506:Drivers/STM32L4xx_HAL_Driver/Src/stm32l4xx_hal.c ****   * @}
 507:Drivers/STM32L4xx_HAL_Driver/Src/stm32l4xx_hal.c ****   */
 508:Drivers/STM32L4xx_HAL_Driver/Src/stm32l4xx_hal.c **** 
 509:Drivers/STM32L4xx_HAL_Driver/Src/stm32l4xx_hal.c **** /** @defgroup HAL_Exported_Functions_Group4 HAL SYSCFG configuration functions
 510:Drivers/STM32L4xx_HAL_Driver/Src/stm32l4xx_hal.c ****  *  @brief    HAL SYSCFG configuration functions
 511:Drivers/STM32L4xx_HAL_Driver/Src/stm32l4xx_hal.c ****  *
 512:Drivers/STM32L4xx_HAL_Driver/Src/stm32l4xx_hal.c **** @verbatim
 513:Drivers/STM32L4xx_HAL_Driver/Src/stm32l4xx_hal.c ****  ===============================================================================
 514:Drivers/STM32L4xx_HAL_Driver/Src/stm32l4xx_hal.c ****                       ##### HAL SYSCFG configuration functions #####
 515:Drivers/STM32L4xx_HAL_Driver/Src/stm32l4xx_hal.c ****  ===============================================================================
 516:Drivers/STM32L4xx_HAL_Driver/Src/stm32l4xx_hal.c ****     [..]  This section provides functions allowing to:
 517:Drivers/STM32L4xx_HAL_Driver/Src/stm32l4xx_hal.c ****       (+) Start a hardware SRAM2 erase operation
 518:Drivers/STM32L4xx_HAL_Driver/Src/stm32l4xx_hal.c ****       (+) Enable/Disable the Internal FLASH Bank Swapping
 519:Drivers/STM32L4xx_HAL_Driver/Src/stm32l4xx_hal.c ****       (+) Configure the Voltage reference buffer
 520:Drivers/STM32L4xx_HAL_Driver/Src/stm32l4xx_hal.c ****       (+) Enable/Disable the Voltage reference buffer
 521:Drivers/STM32L4xx_HAL_Driver/Src/stm32l4xx_hal.c ****       (+) Enable/Disable the I/O analog switch voltage booster
 522:Drivers/STM32L4xx_HAL_Driver/Src/stm32l4xx_hal.c **** 
 523:Drivers/STM32L4xx_HAL_Driver/Src/stm32l4xx_hal.c **** @endverbatim
 524:Drivers/STM32L4xx_HAL_Driver/Src/stm32l4xx_hal.c ****   * @{
 525:Drivers/STM32L4xx_HAL_Driver/Src/stm32l4xx_hal.c ****   */
 526:Drivers/STM32L4xx_HAL_Driver/Src/stm32l4xx_hal.c **** 
 527:Drivers/STM32L4xx_HAL_Driver/Src/stm32l4xx_hal.c **** /**
 528:Drivers/STM32L4xx_HAL_Driver/Src/stm32l4xx_hal.c ****   * @brief  Start a hardware SRAM2 erase operation.
 529:Drivers/STM32L4xx_HAL_Driver/Src/stm32l4xx_hal.c ****   * @note   As long as SRAM2 is not erased the SRAM2ER bit will be set.
 530:Drivers/STM32L4xx_HAL_Driver/Src/stm32l4xx_hal.c ****   *         This bit is automatically reset at the end of the SRAM2 erase operation.
 531:Drivers/STM32L4xx_HAL_Driver/Src/stm32l4xx_hal.c ****   * @retval None
 532:Drivers/STM32L4xx_HAL_Driver/Src/stm32l4xx_hal.c ****   */
 533:Drivers/STM32L4xx_HAL_Driver/Src/stm32l4xx_hal.c **** void HAL_SYSCFG_SRAM2Erase(void)
 534:Drivers/STM32L4xx_HAL_Driver/Src/stm32l4xx_hal.c **** {
 686              		.loc 1 534 0
 687              		.cfi_startproc
 688              		@ args = 0, pretend = 0, frame = 0
 689              		@ frame_needed = 0, uses_anonymous_args = 0
ARM GAS  /tmp/cck6MdJW.s 			page 22


 690              		@ link register save eliminated.
 535:Drivers/STM32L4xx_HAL_Driver/Src/stm32l4xx_hal.c ****   /* unlock the write protection of the SRAM2ER bit */
 536:Drivers/STM32L4xx_HAL_Driver/Src/stm32l4xx_hal.c ****   SYSCFG->SKR = 0xCA;
 691              		.loc 1 536 0
 692 0000 054B     		ldr	r3, .L64
 693 0002 CA22     		movs	r2, #202
 694 0004 5A62     		str	r2, [r3, #36]
 537:Drivers/STM32L4xx_HAL_Driver/Src/stm32l4xx_hal.c ****   SYSCFG->SKR = 0x53;
 695              		.loc 1 537 0
 696 0006 5322     		movs	r2, #83
 697 0008 5A62     		str	r2, [r3, #36]
 538:Drivers/STM32L4xx_HAL_Driver/Src/stm32l4xx_hal.c ****   /* Starts a hardware SRAM2 erase operation*/
 539:Drivers/STM32L4xx_HAL_Driver/Src/stm32l4xx_hal.c ****   *(__IO uint32_t *) SCSR_SRAM2ER_BB = (uint8_t)0x00000001;
 698              		.loc 1 539 0
 699 000a 0122     		movs	r2, #1
 700 000c A3F1FD23 		sub	r3, r3, #-50266880
 701 0010 A3F56003 		sub	r3, r3, #14680064
 702 0014 1A60     		str	r2, [r3]
 703 0016 7047     		bx	lr
 704              	.L65:
 705              		.align	2
 706              	.L64:
 707 0018 00000140 		.word	1073807360
 708              		.cfi_endproc
 709              	.LFE1521:
 711              		.section	.text.HAL_SYSCFG_EnableMemorySwappingBank,"ax",%progbits
 712              		.align	1
 713              		.global	HAL_SYSCFG_EnableMemorySwappingBank
 714              		.syntax unified
 715              		.thumb
 716              		.thumb_func
 717              		.fpu fpv4-sp-d16
 719              	HAL_SYSCFG_EnableMemorySwappingBank:
 720              	.LFB1522:
 540:Drivers/STM32L4xx_HAL_Driver/Src/stm32l4xx_hal.c **** }
 541:Drivers/STM32L4xx_HAL_Driver/Src/stm32l4xx_hal.c **** 
 542:Drivers/STM32L4xx_HAL_Driver/Src/stm32l4xx_hal.c **** /**
 543:Drivers/STM32L4xx_HAL_Driver/Src/stm32l4xx_hal.c ****   * @brief  Enable the Internal FLASH Bank Swapping.
 544:Drivers/STM32L4xx_HAL_Driver/Src/stm32l4xx_hal.c ****   *
 545:Drivers/STM32L4xx_HAL_Driver/Src/stm32l4xx_hal.c ****   * @note   This function can be used only for STM32L4xx devices.
 546:Drivers/STM32L4xx_HAL_Driver/Src/stm32l4xx_hal.c ****   *
 547:Drivers/STM32L4xx_HAL_Driver/Src/stm32l4xx_hal.c ****   * @note   Flash Bank2 mapped at 0x08000000 (and aliased @0x00000000)
 548:Drivers/STM32L4xx_HAL_Driver/Src/stm32l4xx_hal.c ****   *         and Flash Bank1 mapped at 0x08100000 (and aliased at 0x00100000)
 549:Drivers/STM32L4xx_HAL_Driver/Src/stm32l4xx_hal.c ****   *
 550:Drivers/STM32L4xx_HAL_Driver/Src/stm32l4xx_hal.c ****   * @retval None
 551:Drivers/STM32L4xx_HAL_Driver/Src/stm32l4xx_hal.c ****   */
 552:Drivers/STM32L4xx_HAL_Driver/Src/stm32l4xx_hal.c **** void HAL_SYSCFG_EnableMemorySwappingBank(void)
 553:Drivers/STM32L4xx_HAL_Driver/Src/stm32l4xx_hal.c **** {
 721              		.loc 1 553 0
 722              		.cfi_startproc
 723              		@ args = 0, pretend = 0, frame = 0
 724              		@ frame_needed = 0, uses_anonymous_args = 0
 725              		@ link register save eliminated.
 554:Drivers/STM32L4xx_HAL_Driver/Src/stm32l4xx_hal.c ****   *(__IO uint32_t *)FB_MODE_BB = (uint32_t)ENABLE;
 726              		.loc 1 554 0
 727 0000 0122     		movs	r2, #1
 728 0002 014B     		ldr	r3, .L67
ARM GAS  /tmp/cck6MdJW.s 			page 23


 729 0004 1A60     		str	r2, [r3]
 730 0006 7047     		bx	lr
 731              	.L68:
 732              		.align	2
 733              	.L67:
 734 0008 20002042 		.word	1109393440
 735              		.cfi_endproc
 736              	.LFE1522:
 738              		.section	.text.HAL_SYSCFG_DisableMemorySwappingBank,"ax",%progbits
 739              		.align	1
 740              		.global	HAL_SYSCFG_DisableMemorySwappingBank
 741              		.syntax unified
 742              		.thumb
 743              		.thumb_func
 744              		.fpu fpv4-sp-d16
 746              	HAL_SYSCFG_DisableMemorySwappingBank:
 747              	.LFB1523:
 555:Drivers/STM32L4xx_HAL_Driver/Src/stm32l4xx_hal.c **** }
 556:Drivers/STM32L4xx_HAL_Driver/Src/stm32l4xx_hal.c **** 
 557:Drivers/STM32L4xx_HAL_Driver/Src/stm32l4xx_hal.c **** /**
 558:Drivers/STM32L4xx_HAL_Driver/Src/stm32l4xx_hal.c ****   * @brief  Disable the Internal FLASH Bank Swapping.
 559:Drivers/STM32L4xx_HAL_Driver/Src/stm32l4xx_hal.c ****   *
 560:Drivers/STM32L4xx_HAL_Driver/Src/stm32l4xx_hal.c ****   * @note   This function can be used only for STM32L4xx devices.
 561:Drivers/STM32L4xx_HAL_Driver/Src/stm32l4xx_hal.c ****   *
 562:Drivers/STM32L4xx_HAL_Driver/Src/stm32l4xx_hal.c ****   * @note   The default state : Flash Bank1 mapped at 0x08000000 (and aliased @0x0000 0000)
 563:Drivers/STM32L4xx_HAL_Driver/Src/stm32l4xx_hal.c ****   *         and Flash Bank2 mapped at 0x08100000 (and aliased at 0x00100000)
 564:Drivers/STM32L4xx_HAL_Driver/Src/stm32l4xx_hal.c ****   *
 565:Drivers/STM32L4xx_HAL_Driver/Src/stm32l4xx_hal.c ****   * @retval None
 566:Drivers/STM32L4xx_HAL_Driver/Src/stm32l4xx_hal.c ****   */
 567:Drivers/STM32L4xx_HAL_Driver/Src/stm32l4xx_hal.c **** void HAL_SYSCFG_DisableMemorySwappingBank(void)
 568:Drivers/STM32L4xx_HAL_Driver/Src/stm32l4xx_hal.c **** {
 748              		.loc 1 568 0
 749              		.cfi_startproc
 750              		@ args = 0, pretend = 0, frame = 0
 751              		@ frame_needed = 0, uses_anonymous_args = 0
 752              		@ link register save eliminated.
 569:Drivers/STM32L4xx_HAL_Driver/Src/stm32l4xx_hal.c **** 
 570:Drivers/STM32L4xx_HAL_Driver/Src/stm32l4xx_hal.c ****   *(__IO uint32_t *)FB_MODE_BB = (uint32_t)DISABLE;
 753              		.loc 1 570 0
 754 0000 0022     		movs	r2, #0
 755 0002 014B     		ldr	r3, .L70
 756 0004 1A60     		str	r2, [r3]
 757 0006 7047     		bx	lr
 758              	.L71:
 759              		.align	2
 760              	.L70:
 761 0008 20002042 		.word	1109393440
 762              		.cfi_endproc
 763              	.LFE1523:
 765              		.section	.text.HAL_SYSCFG_VREFBUF_VoltageScalingConfig,"ax",%progbits
 766              		.align	1
 767              		.global	HAL_SYSCFG_VREFBUF_VoltageScalingConfig
 768              		.syntax unified
 769              		.thumb
 770              		.thumb_func
 771              		.fpu fpv4-sp-d16
 773              	HAL_SYSCFG_VREFBUF_VoltageScalingConfig:
ARM GAS  /tmp/cck6MdJW.s 			page 24


 774              	.LFB1524:
 571:Drivers/STM32L4xx_HAL_Driver/Src/stm32l4xx_hal.c **** }
 572:Drivers/STM32L4xx_HAL_Driver/Src/stm32l4xx_hal.c **** 
 573:Drivers/STM32L4xx_HAL_Driver/Src/stm32l4xx_hal.c **** #if defined(VREFBUF)
 574:Drivers/STM32L4xx_HAL_Driver/Src/stm32l4xx_hal.c **** /**
 575:Drivers/STM32L4xx_HAL_Driver/Src/stm32l4xx_hal.c ****   * @brief Configure the internal voltage reference buffer voltage scale.
 576:Drivers/STM32L4xx_HAL_Driver/Src/stm32l4xx_hal.c ****   * @param VoltageScaling  specifies the output voltage to achieve
 577:Drivers/STM32L4xx_HAL_Driver/Src/stm32l4xx_hal.c ****   *          This parameter can be one of the following values:
 578:Drivers/STM32L4xx_HAL_Driver/Src/stm32l4xx_hal.c ****   *            @arg SYSCFG_VREFBUF_VOLTAGE_SCALE0: VREF_OUT1 around 2.048 V. 
 579:Drivers/STM32L4xx_HAL_Driver/Src/stm32l4xx_hal.c ****   *                                                This requires VDDA equal to or higher than 2.4 V
 580:Drivers/STM32L4xx_HAL_Driver/Src/stm32l4xx_hal.c ****   *            @arg SYSCFG_VREFBUF_VOLTAGE_SCALE1: VREF_OUT2 around 2.5 V. 
 581:Drivers/STM32L4xx_HAL_Driver/Src/stm32l4xx_hal.c ****   *                                                This requires VDDA equal to or higher than 2.8 V
 582:Drivers/STM32L4xx_HAL_Driver/Src/stm32l4xx_hal.c ****   * @retval None
 583:Drivers/STM32L4xx_HAL_Driver/Src/stm32l4xx_hal.c ****   */
 584:Drivers/STM32L4xx_HAL_Driver/Src/stm32l4xx_hal.c **** void HAL_SYSCFG_VREFBUF_VoltageScalingConfig(uint32_t VoltageScaling)
 585:Drivers/STM32L4xx_HAL_Driver/Src/stm32l4xx_hal.c **** {
 775              		.loc 1 585 0
 776              		.cfi_startproc
 777              		@ args = 0, pretend = 0, frame = 0
 778              		@ frame_needed = 0, uses_anonymous_args = 0
 779              		@ link register save eliminated.
 780              	.LVL14:
 586:Drivers/STM32L4xx_HAL_Driver/Src/stm32l4xx_hal.c ****   /* Check the parameters */
 587:Drivers/STM32L4xx_HAL_Driver/Src/stm32l4xx_hal.c ****   assert_param(IS_SYSCFG_VREFBUF_VOLTAGE_SCALE(VoltageScaling));
 588:Drivers/STM32L4xx_HAL_Driver/Src/stm32l4xx_hal.c ****   
 589:Drivers/STM32L4xx_HAL_Driver/Src/stm32l4xx_hal.c ****   MODIFY_REG(VREFBUF->CSR, VREFBUF_CSR_VRS, VoltageScaling);
 781              		.loc 1 589 0
 782 0000 034A     		ldr	r2, .L73
 783 0002 1368     		ldr	r3, [r2]
 784 0004 23F00403 		bic	r3, r3, #4
 785 0008 1843     		orrs	r0, r0, r3
 786              	.LVL15:
 787 000a 1060     		str	r0, [r2]
 788 000c 7047     		bx	lr
 789              	.L74:
 790 000e 00BF     		.align	2
 791              	.L73:
 792 0010 30000140 		.word	1073807408
 793              		.cfi_endproc
 794              	.LFE1524:
 796              		.section	.text.HAL_SYSCFG_VREFBUF_HighImpedanceConfig,"ax",%progbits
 797              		.align	1
 798              		.global	HAL_SYSCFG_VREFBUF_HighImpedanceConfig
 799              		.syntax unified
 800              		.thumb
 801              		.thumb_func
 802              		.fpu fpv4-sp-d16
 804              	HAL_SYSCFG_VREFBUF_HighImpedanceConfig:
 805              	.LFB1525:
 590:Drivers/STM32L4xx_HAL_Driver/Src/stm32l4xx_hal.c **** }
 591:Drivers/STM32L4xx_HAL_Driver/Src/stm32l4xx_hal.c **** 
 592:Drivers/STM32L4xx_HAL_Driver/Src/stm32l4xx_hal.c **** /**
 593:Drivers/STM32L4xx_HAL_Driver/Src/stm32l4xx_hal.c ****   * @brief Configure the internal voltage reference buffer high impedance mode.
 594:Drivers/STM32L4xx_HAL_Driver/Src/stm32l4xx_hal.c ****   * @param Mode  specifies the high impedance mode
 595:Drivers/STM32L4xx_HAL_Driver/Src/stm32l4xx_hal.c ****   *          This parameter can be one of the following values:
 596:Drivers/STM32L4xx_HAL_Driver/Src/stm32l4xx_hal.c ****   *            @arg SYSCFG_VREFBUF_HIGH_IMPEDANCE_DISABLE: VREF+ pin is internally connect to VREFI
 597:Drivers/STM32L4xx_HAL_Driver/Src/stm32l4xx_hal.c ****   *            @arg SYSCFG_VREFBUF_HIGH_IMPEDANCE_ENABLE: VREF+ pin is high impedance.
ARM GAS  /tmp/cck6MdJW.s 			page 25


 598:Drivers/STM32L4xx_HAL_Driver/Src/stm32l4xx_hal.c ****   * @retval None
 599:Drivers/STM32L4xx_HAL_Driver/Src/stm32l4xx_hal.c ****   */
 600:Drivers/STM32L4xx_HAL_Driver/Src/stm32l4xx_hal.c **** void HAL_SYSCFG_VREFBUF_HighImpedanceConfig(uint32_t Mode)
 601:Drivers/STM32L4xx_HAL_Driver/Src/stm32l4xx_hal.c **** {
 806              		.loc 1 601 0
 807              		.cfi_startproc
 808              		@ args = 0, pretend = 0, frame = 0
 809              		@ frame_needed = 0, uses_anonymous_args = 0
 810              		@ link register save eliminated.
 811              	.LVL16:
 602:Drivers/STM32L4xx_HAL_Driver/Src/stm32l4xx_hal.c ****   /* Check the parameters */
 603:Drivers/STM32L4xx_HAL_Driver/Src/stm32l4xx_hal.c ****   assert_param(IS_SYSCFG_VREFBUF_HIGH_IMPEDANCE(Mode));
 604:Drivers/STM32L4xx_HAL_Driver/Src/stm32l4xx_hal.c ****   
 605:Drivers/STM32L4xx_HAL_Driver/Src/stm32l4xx_hal.c ****   MODIFY_REG(VREFBUF->CSR, VREFBUF_CSR_HIZ, Mode);
 812              		.loc 1 605 0
 813 0000 034A     		ldr	r2, .L76
 814 0002 1368     		ldr	r3, [r2]
 815 0004 23F00203 		bic	r3, r3, #2
 816 0008 1843     		orrs	r0, r0, r3
 817              	.LVL17:
 818 000a 1060     		str	r0, [r2]
 819 000c 7047     		bx	lr
 820              	.L77:
 821 000e 00BF     		.align	2
 822              	.L76:
 823 0010 30000140 		.word	1073807408
 824              		.cfi_endproc
 825              	.LFE1525:
 827              		.section	.text.HAL_SYSCFG_VREFBUF_TrimmingConfig,"ax",%progbits
 828              		.align	1
 829              		.global	HAL_SYSCFG_VREFBUF_TrimmingConfig
 830              		.syntax unified
 831              		.thumb
 832              		.thumb_func
 833              		.fpu fpv4-sp-d16
 835              	HAL_SYSCFG_VREFBUF_TrimmingConfig:
 836              	.LFB1526:
 606:Drivers/STM32L4xx_HAL_Driver/Src/stm32l4xx_hal.c **** }
 607:Drivers/STM32L4xx_HAL_Driver/Src/stm32l4xx_hal.c **** 
 608:Drivers/STM32L4xx_HAL_Driver/Src/stm32l4xx_hal.c **** /**
 609:Drivers/STM32L4xx_HAL_Driver/Src/stm32l4xx_hal.c ****   * @brief  Tune the Internal Voltage Reference buffer (VREFBUF).
 610:Drivers/STM32L4xx_HAL_Driver/Src/stm32l4xx_hal.c ****   * @retval None
 611:Drivers/STM32L4xx_HAL_Driver/Src/stm32l4xx_hal.c ****   */
 612:Drivers/STM32L4xx_HAL_Driver/Src/stm32l4xx_hal.c **** void HAL_SYSCFG_VREFBUF_TrimmingConfig(uint32_t TrimmingValue)
 613:Drivers/STM32L4xx_HAL_Driver/Src/stm32l4xx_hal.c **** {
 837              		.loc 1 613 0
 838              		.cfi_startproc
 839              		@ args = 0, pretend = 0, frame = 0
 840              		@ frame_needed = 0, uses_anonymous_args = 0
 841              		@ link register save eliminated.
 842              	.LVL18:
 614:Drivers/STM32L4xx_HAL_Driver/Src/stm32l4xx_hal.c ****   /* Check the parameters */
 615:Drivers/STM32L4xx_HAL_Driver/Src/stm32l4xx_hal.c ****   assert_param(IS_SYSCFG_VREFBUF_TRIMMING(TrimmingValue));
 616:Drivers/STM32L4xx_HAL_Driver/Src/stm32l4xx_hal.c ****   
 617:Drivers/STM32L4xx_HAL_Driver/Src/stm32l4xx_hal.c ****   MODIFY_REG(VREFBUF->CCR, VREFBUF_CCR_TRIM, TrimmingValue);
 843              		.loc 1 617 0
 844 0000 034A     		ldr	r2, .L79
ARM GAS  /tmp/cck6MdJW.s 			page 26


 845 0002 5368     		ldr	r3, [r2, #4]
 846 0004 23F03F03 		bic	r3, r3, #63
 847 0008 1843     		orrs	r0, r0, r3
 848              	.LVL19:
 849 000a 5060     		str	r0, [r2, #4]
 850 000c 7047     		bx	lr
 851              	.L80:
 852 000e 00BF     		.align	2
 853              	.L79:
 854 0010 30000140 		.word	1073807408
 855              		.cfi_endproc
 856              	.LFE1526:
 858              		.section	.text.HAL_SYSCFG_EnableVREFBUF,"ax",%progbits
 859              		.align	1
 860              		.global	HAL_SYSCFG_EnableVREFBUF
 861              		.syntax unified
 862              		.thumb
 863              		.thumb_func
 864              		.fpu fpv4-sp-d16
 866              	HAL_SYSCFG_EnableVREFBUF:
 867              	.LFB1527:
 618:Drivers/STM32L4xx_HAL_Driver/Src/stm32l4xx_hal.c **** }
 619:Drivers/STM32L4xx_HAL_Driver/Src/stm32l4xx_hal.c **** 
 620:Drivers/STM32L4xx_HAL_Driver/Src/stm32l4xx_hal.c **** /**
 621:Drivers/STM32L4xx_HAL_Driver/Src/stm32l4xx_hal.c ****   * @brief  Enable the Internal Voltage Reference buffer (VREFBUF).
 622:Drivers/STM32L4xx_HAL_Driver/Src/stm32l4xx_hal.c ****   * @retval HAL_OK/HAL_TIMEOUT
 623:Drivers/STM32L4xx_HAL_Driver/Src/stm32l4xx_hal.c ****   */
 624:Drivers/STM32L4xx_HAL_Driver/Src/stm32l4xx_hal.c **** HAL_StatusTypeDef HAL_SYSCFG_EnableVREFBUF(void)
 625:Drivers/STM32L4xx_HAL_Driver/Src/stm32l4xx_hal.c **** {
 868              		.loc 1 625 0
 869              		.cfi_startproc
 870              		@ args = 0, pretend = 0, frame = 0
 871              		@ frame_needed = 0, uses_anonymous_args = 0
 872 0000 10B5     		push	{r4, lr}
 873              	.LCFI4:
 874              		.cfi_def_cfa_offset 8
 875              		.cfi_offset 4, -8
 876              		.cfi_offset 14, -4
 877              	.LVL20:
 626:Drivers/STM32L4xx_HAL_Driver/Src/stm32l4xx_hal.c ****   uint32_t  tickstart = 0;
 627:Drivers/STM32L4xx_HAL_Driver/Src/stm32l4xx_hal.c ****   
 628:Drivers/STM32L4xx_HAL_Driver/Src/stm32l4xx_hal.c ****   SET_BIT(VREFBUF->CSR, VREFBUF_CSR_ENVR);
 878              		.loc 1 628 0
 879 0002 0B4A     		ldr	r2, .L88
 880 0004 1368     		ldr	r3, [r2]
 881 0006 43F00103 		orr	r3, r3, #1
 882 000a 1360     		str	r3, [r2]
 629:Drivers/STM32L4xx_HAL_Driver/Src/stm32l4xx_hal.c ****   
 630:Drivers/STM32L4xx_HAL_Driver/Src/stm32l4xx_hal.c ****   /* Get Start Tick*/
 631:Drivers/STM32L4xx_HAL_Driver/Src/stm32l4xx_hal.c ****   tickstart = HAL_GetTick();
 883              		.loc 1 631 0
 884 000c FFF7FEFF 		bl	HAL_GetTick
 885              	.LVL21:
 886 0010 0446     		mov	r4, r0
 887              	.LVL22:
 888              	.L82:
 632:Drivers/STM32L4xx_HAL_Driver/Src/stm32l4xx_hal.c **** 
ARM GAS  /tmp/cck6MdJW.s 			page 27


 633:Drivers/STM32L4xx_HAL_Driver/Src/stm32l4xx_hal.c ****   /* Wait for VRR bit  */
 634:Drivers/STM32L4xx_HAL_Driver/Src/stm32l4xx_hal.c ****   while(READ_BIT(VREFBUF->CSR, VREFBUF_CSR_VRR) == RESET)
 889              		.loc 1 634 0
 890 0012 074B     		ldr	r3, .L88
 891 0014 1B68     		ldr	r3, [r3]
 892 0016 13F0080F 		tst	r3, #8
 893 001a 06D1     		bne	.L87
 635:Drivers/STM32L4xx_HAL_Driver/Src/stm32l4xx_hal.c ****   {
 636:Drivers/STM32L4xx_HAL_Driver/Src/stm32l4xx_hal.c ****     if((HAL_GetTick() - tickstart) > VREFBUF_TIMEOUT_VALUE)
 894              		.loc 1 636 0
 895 001c FFF7FEFF 		bl	HAL_GetTick
 896              	.LVL23:
 897 0020 001B     		subs	r0, r0, r4
 898 0022 0A28     		cmp	r0, #10
 899 0024 F5D9     		bls	.L82
 637:Drivers/STM32L4xx_HAL_Driver/Src/stm32l4xx_hal.c ****     {
 638:Drivers/STM32L4xx_HAL_Driver/Src/stm32l4xx_hal.c ****       return HAL_TIMEOUT;
 900              		.loc 1 638 0
 901 0026 0320     		movs	r0, #3
 639:Drivers/STM32L4xx_HAL_Driver/Src/stm32l4xx_hal.c ****     }
 640:Drivers/STM32L4xx_HAL_Driver/Src/stm32l4xx_hal.c ****   }
 641:Drivers/STM32L4xx_HAL_Driver/Src/stm32l4xx_hal.c ****   
 642:Drivers/STM32L4xx_HAL_Driver/Src/stm32l4xx_hal.c ****   return HAL_OK;
 643:Drivers/STM32L4xx_HAL_Driver/Src/stm32l4xx_hal.c **** }
 902              		.loc 1 643 0
 903 0028 10BD     		pop	{r4, pc}
 904              	.LVL24:
 905              	.L87:
 642:Drivers/STM32L4xx_HAL_Driver/Src/stm32l4xx_hal.c **** }
 906              		.loc 1 642 0
 907 002a 0020     		movs	r0, #0
 908 002c 10BD     		pop	{r4, pc}
 909              	.LVL25:
 910              	.L89:
 911 002e 00BF     		.align	2
 912              	.L88:
 913 0030 30000140 		.word	1073807408
 914              		.cfi_endproc
 915              	.LFE1527:
 917              		.section	.text.HAL_SYSCFG_DisableVREFBUF,"ax",%progbits
 918              		.align	1
 919              		.global	HAL_SYSCFG_DisableVREFBUF
 920              		.syntax unified
 921              		.thumb
 922              		.thumb_func
 923              		.fpu fpv4-sp-d16
 925              	HAL_SYSCFG_DisableVREFBUF:
 926              	.LFB1528:
 644:Drivers/STM32L4xx_HAL_Driver/Src/stm32l4xx_hal.c **** 
 645:Drivers/STM32L4xx_HAL_Driver/Src/stm32l4xx_hal.c **** /**
 646:Drivers/STM32L4xx_HAL_Driver/Src/stm32l4xx_hal.c ****   * @brief  Disable the Internal Voltage Reference buffer (VREFBUF).
 647:Drivers/STM32L4xx_HAL_Driver/Src/stm32l4xx_hal.c ****   *
 648:Drivers/STM32L4xx_HAL_Driver/Src/stm32l4xx_hal.c ****   * @retval None
 649:Drivers/STM32L4xx_HAL_Driver/Src/stm32l4xx_hal.c ****   */
 650:Drivers/STM32L4xx_HAL_Driver/Src/stm32l4xx_hal.c **** void HAL_SYSCFG_DisableVREFBUF(void)
 651:Drivers/STM32L4xx_HAL_Driver/Src/stm32l4xx_hal.c **** {
 927              		.loc 1 651 0
ARM GAS  /tmp/cck6MdJW.s 			page 28


 928              		.cfi_startproc
 929              		@ args = 0, pretend = 0, frame = 0
 930              		@ frame_needed = 0, uses_anonymous_args = 0
 931              		@ link register save eliminated.
 652:Drivers/STM32L4xx_HAL_Driver/Src/stm32l4xx_hal.c ****   CLEAR_BIT(VREFBUF->CSR, VREFBUF_CSR_ENVR);
 932              		.loc 1 652 0
 933 0000 024A     		ldr	r2, .L91
 934 0002 1368     		ldr	r3, [r2]
 935 0004 23F00103 		bic	r3, r3, #1
 936 0008 1360     		str	r3, [r2]
 937 000a 7047     		bx	lr
 938              	.L92:
 939              		.align	2
 940              	.L91:
 941 000c 30000140 		.word	1073807408
 942              		.cfi_endproc
 943              	.LFE1528:
 945              		.section	.text.HAL_SYSCFG_EnableIOAnalogSwitchBooster,"ax",%progbits
 946              		.align	1
 947              		.global	HAL_SYSCFG_EnableIOAnalogSwitchBooster
 948              		.syntax unified
 949              		.thumb
 950              		.thumb_func
 951              		.fpu fpv4-sp-d16
 953              	HAL_SYSCFG_EnableIOAnalogSwitchBooster:
 954              	.LFB1529:
 653:Drivers/STM32L4xx_HAL_Driver/Src/stm32l4xx_hal.c **** }
 654:Drivers/STM32L4xx_HAL_Driver/Src/stm32l4xx_hal.c **** #endif /* VREFBUF */
 655:Drivers/STM32L4xx_HAL_Driver/Src/stm32l4xx_hal.c **** 
 656:Drivers/STM32L4xx_HAL_Driver/Src/stm32l4xx_hal.c **** /**
 657:Drivers/STM32L4xx_HAL_Driver/Src/stm32l4xx_hal.c ****   * @brief  Enable the I/O analog switch voltage booster
 658:Drivers/STM32L4xx_HAL_Driver/Src/stm32l4xx_hal.c ****   *
 659:Drivers/STM32L4xx_HAL_Driver/Src/stm32l4xx_hal.c ****   * @retval None
 660:Drivers/STM32L4xx_HAL_Driver/Src/stm32l4xx_hal.c ****   */
 661:Drivers/STM32L4xx_HAL_Driver/Src/stm32l4xx_hal.c **** void HAL_SYSCFG_EnableIOAnalogSwitchBooster(void)
 662:Drivers/STM32L4xx_HAL_Driver/Src/stm32l4xx_hal.c **** {
 955              		.loc 1 662 0
 956              		.cfi_startproc
 957              		@ args = 0, pretend = 0, frame = 0
 958              		@ frame_needed = 0, uses_anonymous_args = 0
 959              		@ link register save eliminated.
 663:Drivers/STM32L4xx_HAL_Driver/Src/stm32l4xx_hal.c ****   SET_BIT(SYSCFG->CFGR1, SYSCFG_CFGR1_BOOSTEN);
 960              		.loc 1 663 0
 961 0000 024A     		ldr	r2, .L94
 962 0002 5368     		ldr	r3, [r2, #4]
 963 0004 43F48073 		orr	r3, r3, #256
 964 0008 5360     		str	r3, [r2, #4]
 965 000a 7047     		bx	lr
 966              	.L95:
 967              		.align	2
 968              	.L94:
 969 000c 00000140 		.word	1073807360
 970              		.cfi_endproc
 971              	.LFE1529:
 973              		.section	.text.HAL_SYSCFG_DisableIOAnalogSwitchBooster,"ax",%progbits
 974              		.align	1
 975              		.global	HAL_SYSCFG_DisableIOAnalogSwitchBooster
ARM GAS  /tmp/cck6MdJW.s 			page 29


 976              		.syntax unified
 977              		.thumb
 978              		.thumb_func
 979              		.fpu fpv4-sp-d16
 981              	HAL_SYSCFG_DisableIOAnalogSwitchBooster:
 982              	.LFB1530:
 664:Drivers/STM32L4xx_HAL_Driver/Src/stm32l4xx_hal.c **** }
 665:Drivers/STM32L4xx_HAL_Driver/Src/stm32l4xx_hal.c **** 
 666:Drivers/STM32L4xx_HAL_Driver/Src/stm32l4xx_hal.c **** /**
 667:Drivers/STM32L4xx_HAL_Driver/Src/stm32l4xx_hal.c ****   * @brief  Disable the I/O analog switch voltage booster
 668:Drivers/STM32L4xx_HAL_Driver/Src/stm32l4xx_hal.c ****   *
 669:Drivers/STM32L4xx_HAL_Driver/Src/stm32l4xx_hal.c ****   * @retval None
 670:Drivers/STM32L4xx_HAL_Driver/Src/stm32l4xx_hal.c ****   */
 671:Drivers/STM32L4xx_HAL_Driver/Src/stm32l4xx_hal.c **** void HAL_SYSCFG_DisableIOAnalogSwitchBooster(void)
 672:Drivers/STM32L4xx_HAL_Driver/Src/stm32l4xx_hal.c **** {
 983              		.loc 1 672 0
 984              		.cfi_startproc
 985              		@ args = 0, pretend = 0, frame = 0
 986              		@ frame_needed = 0, uses_anonymous_args = 0
 987              		@ link register save eliminated.
 673:Drivers/STM32L4xx_HAL_Driver/Src/stm32l4xx_hal.c ****   CLEAR_BIT(SYSCFG->CFGR1, SYSCFG_CFGR1_BOOSTEN);
 988              		.loc 1 673 0
 989 0000 024A     		ldr	r2, .L97
 990 0002 5368     		ldr	r3, [r2, #4]
 991 0004 23F48073 		bic	r3, r3, #256
 992 0008 5360     		str	r3, [r2, #4]
 993 000a 7047     		bx	lr
 994              	.L98:
 995              		.align	2
 996              	.L97:
 997 000c 00000140 		.word	1073807360
 998              		.cfi_endproc
 999              	.LFE1530:
 1001              		.comm	uwTick,4,4
 1002              		.text
 1003              	.Letext0:
 1004              		.file 2 "/usr/arm-none-eabi/include/machine/_default_types.h"
 1005              		.file 3 "/usr/arm-none-eabi/include/sys/_stdint.h"
 1006              		.file 4 "Drivers/CMSIS/Include/core_cm4.h"
 1007              		.file 5 "Drivers/CMSIS/Device/ST/STM32L4xx/Include/system_stm32l4xx.h"
 1008              		.file 6 "Drivers/CMSIS/Device/ST/STM32L4xx/Include/stm32l476xx.h"
 1009              		.file 7 "Drivers/CMSIS/Device/ST/STM32L4xx/Include/stm32l4xx.h"
 1010              		.file 8 "Drivers/STM32L4xx_HAL_Driver/Inc/stm32l4xx_ll_dma.h"
 1011              		.file 9 "Drivers/STM32L4xx_HAL_Driver/Inc/stm32l4xx_ll_tim.h"
 1012              		.file 10 "/usr/arm-none-eabi/include/sys/lock.h"
 1013              		.file 11 "/usr/arm-none-eabi/include/sys/_types.h"
 1014              		.file 12 "/usr/lib/gcc/arm-none-eabi/6.3.1/include/stddef.h"
 1015              		.file 13 "/usr/arm-none-eabi/include/sys/reent.h"
 1016              		.file 14 "Drivers/STM32L4xx_HAL_Driver/Inc/stm32l4xx_hal_def.h"
 1017              		.file 15 "Drivers/STM32L4xx_HAL_Driver/Inc/stm32l4xx_hal_cortex.h"
ARM GAS  /tmp/cck6MdJW.s 			page 30

