ARM GAS  /tmp/ccNW8x26.s 			page 1


   1              		.cpu cortex-m4
   2              		.eabi_attribute 27, 1
   3              		.eabi_attribute 28, 1
   4              		.eabi_attribute 20, 1
   5              		.eabi_attribute 21, 1
   6              		.eabi_attribute 23, 3
   7              		.eabi_attribute 24, 1
   8              		.eabi_attribute 25, 1
   9              		.eabi_attribute 26, 1
  10              		.eabi_attribute 30, 1
  11              		.eabi_attribute 34, 1
  12              		.eabi_attribute 18, 4
  13              		.file	"stm32l4xx_hal_dac.c"
  14              		.text
  15              	.Ltext0:
  16              		.cfi_sections	.debug_frame
  17              		.section	.text.HAL_DAC_MspInit,"ax",%progbits
  18              		.align	1
  19              		.weak	HAL_DAC_MspInit
  20              		.syntax unified
  21              		.thumb
  22              		.thumb_func
  23              		.fpu fpv4-sp-d16
  25              	HAL_DAC_MspInit:
  26              	.LFB311:
  27              		.file 1 "Drivers/STM32L4xx_HAL_Driver/Src/stm32l4xx_hal_dac.c"
   1:Drivers/STM32L4xx_HAL_Driver/Src/stm32l4xx_hal_dac.c **** /**
   2:Drivers/STM32L4xx_HAL_Driver/Src/stm32l4xx_hal_dac.c ****   ******************************************************************************
   3:Drivers/STM32L4xx_HAL_Driver/Src/stm32l4xx_hal_dac.c ****   * @file    stm32l4xx_hal_dac.c
   4:Drivers/STM32L4xx_HAL_Driver/Src/stm32l4xx_hal_dac.c ****   * @author  MCD Application Team
   5:Drivers/STM32L4xx_HAL_Driver/Src/stm32l4xx_hal_dac.c ****   * @brief   DAC HAL module driver.
   6:Drivers/STM32L4xx_HAL_Driver/Src/stm32l4xx_hal_dac.c ****   *         This file provides firmware functions to manage the following 
   7:Drivers/STM32L4xx_HAL_Driver/Src/stm32l4xx_hal_dac.c ****   *         functionalities of the Digital to Analog Converter (DAC) peripheral:
   8:Drivers/STM32L4xx_HAL_Driver/Src/stm32l4xx_hal_dac.c ****   *           + Initialization and de-initialization functions
   9:Drivers/STM32L4xx_HAL_Driver/Src/stm32l4xx_hal_dac.c ****   *           + IO operation functions
  10:Drivers/STM32L4xx_HAL_Driver/Src/stm32l4xx_hal_dac.c ****   *           + Peripheral Control functions
  11:Drivers/STM32L4xx_HAL_Driver/Src/stm32l4xx_hal_dac.c ****   *           + Peripheral State and Errors functions      
  12:Drivers/STM32L4xx_HAL_Driver/Src/stm32l4xx_hal_dac.c ****   *     
  13:Drivers/STM32L4xx_HAL_Driver/Src/stm32l4xx_hal_dac.c ****   *
  14:Drivers/STM32L4xx_HAL_Driver/Src/stm32l4xx_hal_dac.c ****   @verbatim      
  15:Drivers/STM32L4xx_HAL_Driver/Src/stm32l4xx_hal_dac.c ****   ==============================================================================
  16:Drivers/STM32L4xx_HAL_Driver/Src/stm32l4xx_hal_dac.c ****                       ##### DAC Peripheral features #####
  17:Drivers/STM32L4xx_HAL_Driver/Src/stm32l4xx_hal_dac.c ****   ==============================================================================
  18:Drivers/STM32L4xx_HAL_Driver/Src/stm32l4xx_hal_dac.c ****     [..]        
  19:Drivers/STM32L4xx_HAL_Driver/Src/stm32l4xx_hal_dac.c ****       *** DAC Channels ***
  20:Drivers/STM32L4xx_HAL_Driver/Src/stm32l4xx_hal_dac.c ****       ====================  
  21:Drivers/STM32L4xx_HAL_Driver/Src/stm32l4xx_hal_dac.c ****     [..]  
  22:Drivers/STM32L4xx_HAL_Driver/Src/stm32l4xx_hal_dac.c ****     STM32L4 devices integrate one or two 12-bit Digital Analog Converters 
  23:Drivers/STM32L4xx_HAL_Driver/Src/stm32l4xx_hal_dac.c ****     (i.e. one or 2 channel(s))
  24:Drivers/STM32L4xx_HAL_Driver/Src/stm32l4xx_hal_dac.c ****     1 channel : STM32L451xx STM32L452xx STM32L462xx
  25:Drivers/STM32L4xx_HAL_Driver/Src/stm32l4xx_hal_dac.c ****     2 channels: STM32L431xx STM32L432xx STM32L433xx STM32L442xx STM32L443xx
  26:Drivers/STM32L4xx_HAL_Driver/Src/stm32l4xx_hal_dac.c ****                 STM32L471xx STM32L475xx STM32L476xx STM32L485xx STM32L486xx STM32L496xx STM32L4A6xx
  27:Drivers/STM32L4xx_HAL_Driver/Src/stm32l4xx_hal_dac.c ****                 STM32L4R5xx STM32L4R7xx STM32L4R9xx STM32L4S5xx STM32L4S7xx STM32L4S9xx 
  28:Drivers/STM32L4xx_HAL_Driver/Src/stm32l4xx_hal_dac.c **** 
  29:Drivers/STM32L4xx_HAL_Driver/Src/stm32l4xx_hal_dac.c ****     When 2 channels are available, the 2 converters (i.e. channel1 & channel2)
  30:Drivers/STM32L4xx_HAL_Driver/Src/stm32l4xx_hal_dac.c ****     can be used independently or simultaneously (dual mode):
  31:Drivers/STM32L4xx_HAL_Driver/Src/stm32l4xx_hal_dac.c ****       (#) DAC channel1 with DAC_OUT1 (PA4) as output or connected to on-chip 
ARM GAS  /tmp/ccNW8x26.s 			page 2


  32:Drivers/STM32L4xx_HAL_Driver/Src/stm32l4xx_hal_dac.c ****           peripherals (ex. OPAMPs, comparators).
  33:Drivers/STM32L4xx_HAL_Driver/Src/stm32l4xx_hal_dac.c ****       (#) Whenever present, DAC channel2 with DAC_OUT2 (PA5) as output 
  34:Drivers/STM32L4xx_HAL_Driver/Src/stm32l4xx_hal_dac.c ****           or connected to on-chip peripherals (ex. OPAMPs, comparators).
  35:Drivers/STM32L4xx_HAL_Driver/Src/stm32l4xx_hal_dac.c ****       
  36:Drivers/STM32L4xx_HAL_Driver/Src/stm32l4xx_hal_dac.c ****       *** DAC Triggers ***
  37:Drivers/STM32L4xx_HAL_Driver/Src/stm32l4xx_hal_dac.c ****       ====================
  38:Drivers/STM32L4xx_HAL_Driver/Src/stm32l4xx_hal_dac.c ****     [..]
  39:Drivers/STM32L4xx_HAL_Driver/Src/stm32l4xx_hal_dac.c ****     Digital to Analog conversion can be non-triggered using DAC_TRIGGER_NONE
  40:Drivers/STM32L4xx_HAL_Driver/Src/stm32l4xx_hal_dac.c ****     and DAC_OUT1/DAC_OUT2 is available once writing to DHRx register. 
  41:Drivers/STM32L4xx_HAL_Driver/Src/stm32l4xx_hal_dac.c ****     [..] 
  42:Drivers/STM32L4xx_HAL_Driver/Src/stm32l4xx_hal_dac.c ****     Digital to Analog conversion can be triggered by:
  43:Drivers/STM32L4xx_HAL_Driver/Src/stm32l4xx_hal_dac.c ****       (#) External event: EXTI Line 9 (any GPIOx_PIN_9) using DAC_TRIGGER_EXT_IT9.
  44:Drivers/STM32L4xx_HAL_Driver/Src/stm32l4xx_hal_dac.c ****           The used pin (GPIOx_PIN_9) must be configured in input mode.
  45:Drivers/STM32L4xx_HAL_Driver/Src/stm32l4xx_hal_dac.c ****   
  46:Drivers/STM32L4xx_HAL_Driver/Src/stm32l4xx_hal_dac.c ****       (#) Timers TRGO: TIM2, TIM3, TIM4, TIM5, TIM6 and TIM7 
  47:Drivers/STM32L4xx_HAL_Driver/Src/stm32l4xx_hal_dac.c ****           (DAC_TRIGGER_T2_TRGO, DAC_TRIGGER_T3_TRGO...)
  48:Drivers/STM32L4xx_HAL_Driver/Src/stm32l4xx_hal_dac.c ****   
  49:Drivers/STM32L4xx_HAL_Driver/Src/stm32l4xx_hal_dac.c ****       (#) Software using DAC_TRIGGER_SOFTWARE
  50:Drivers/STM32L4xx_HAL_Driver/Src/stm32l4xx_hal_dac.c ****   
  51:Drivers/STM32L4xx_HAL_Driver/Src/stm32l4xx_hal_dac.c ****       *** DAC Buffer mode feature ***
  52:Drivers/STM32L4xx_HAL_Driver/Src/stm32l4xx_hal_dac.c ****       =============================== 
  53:Drivers/STM32L4xx_HAL_Driver/Src/stm32l4xx_hal_dac.c ****       [..] 
  54:Drivers/STM32L4xx_HAL_Driver/Src/stm32l4xx_hal_dac.c ****       Each DAC channel integrates an output buffer that can be used to 
  55:Drivers/STM32L4xx_HAL_Driver/Src/stm32l4xx_hal_dac.c ****       reduce the output impedance, and to drive external loads directly
  56:Drivers/STM32L4xx_HAL_Driver/Src/stm32l4xx_hal_dac.c ****       without having to add an external operational amplifier.
  57:Drivers/STM32L4xx_HAL_Driver/Src/stm32l4xx_hal_dac.c ****       To enable, the output buffer use  
  58:Drivers/STM32L4xx_HAL_Driver/Src/stm32l4xx_hal_dac.c ****       sConfig.DAC_OutputBuffer = DAC_OUTPUTBUFFER_ENABLE;
  59:Drivers/STM32L4xx_HAL_Driver/Src/stm32l4xx_hal_dac.c ****       [..]           
  60:Drivers/STM32L4xx_HAL_Driver/Src/stm32l4xx_hal_dac.c ****       (@) Refer to the device datasheet for more details about output 
  61:Drivers/STM32L4xx_HAL_Driver/Src/stm32l4xx_hal_dac.c ****           impedance value with and without output buffer.
  62:Drivers/STM32L4xx_HAL_Driver/Src/stm32l4xx_hal_dac.c **** 
  63:Drivers/STM32L4xx_HAL_Driver/Src/stm32l4xx_hal_dac.c ****       *** DAC connect feature ***
  64:Drivers/STM32L4xx_HAL_Driver/Src/stm32l4xx_hal_dac.c ****       =============================== 
  65:Drivers/STM32L4xx_HAL_Driver/Src/stm32l4xx_hal_dac.c ****       [..] 
  66:Drivers/STM32L4xx_HAL_Driver/Src/stm32l4xx_hal_dac.c ****       Each DAC channel can be connected internally. 
  67:Drivers/STM32L4xx_HAL_Driver/Src/stm32l4xx_hal_dac.c ****       To connect, use
  68:Drivers/STM32L4xx_HAL_Driver/Src/stm32l4xx_hal_dac.c ****       sConfig.DAC_ConnectOnChipPeripheral = DAC_CHIPCONNECT_ENABLE;
  69:Drivers/STM32L4xx_HAL_Driver/Src/stm32l4xx_hal_dac.c ****                                                
  70:Drivers/STM32L4xx_HAL_Driver/Src/stm32l4xx_hal_dac.c ****       *** GPIO configurations guidelines ***
  71:Drivers/STM32L4xx_HAL_Driver/Src/stm32l4xx_hal_dac.c ****       =====================
  72:Drivers/STM32L4xx_HAL_Driver/Src/stm32l4xx_hal_dac.c ****       [..] 
  73:Drivers/STM32L4xx_HAL_Driver/Src/stm32l4xx_hal_dac.c ****       When a DAC channel is used (ex channel1 on PA4) and the other is not 
  74:Drivers/STM32L4xx_HAL_Driver/Src/stm32l4xx_hal_dac.c ****       (ex channel2 on PA5 is configured in Analog and disabled).
  75:Drivers/STM32L4xx_HAL_Driver/Src/stm32l4xx_hal_dac.c ****       Channel1 may disturb channel2 as coupling effect.
  76:Drivers/STM32L4xx_HAL_Driver/Src/stm32l4xx_hal_dac.c ****       Note that there is no coupling on channel2 as soon as channel2 is turned on.
  77:Drivers/STM32L4xx_HAL_Driver/Src/stm32l4xx_hal_dac.c ****       Coupling on adjacent channel could be avoided as follows:
  78:Drivers/STM32L4xx_HAL_Driver/Src/stm32l4xx_hal_dac.c ****       when unused PA5 is configured as INPUT PULL-UP or DOWN. 
  79:Drivers/STM32L4xx_HAL_Driver/Src/stm32l4xx_hal_dac.c ****       PA5 is configured in ANALOG just before it is turned on.     
  80:Drivers/STM32L4xx_HAL_Driver/Src/stm32l4xx_hal_dac.c ****                                                
  81:Drivers/STM32L4xx_HAL_Driver/Src/stm32l4xx_hal_dac.c ****       *** DAC Sample and Hold feature ***
  82:Drivers/STM32L4xx_HAL_Driver/Src/stm32l4xx_hal_dac.c ****       ========================
  83:Drivers/STM32L4xx_HAL_Driver/Src/stm32l4xx_hal_dac.c ****       [..] 
  84:Drivers/STM32L4xx_HAL_Driver/Src/stm32l4xx_hal_dac.c ****       For each converter, 2 modes are supported: normal mode and 
  85:Drivers/STM32L4xx_HAL_Driver/Src/stm32l4xx_hal_dac.c ****       "sample and hold" mode (i.e. low power mode).
  86:Drivers/STM32L4xx_HAL_Driver/Src/stm32l4xx_hal_dac.c ****       In the sample and hold mode, the DAC core converts data, then holds the 
  87:Drivers/STM32L4xx_HAL_Driver/Src/stm32l4xx_hal_dac.c ****       converted voltage on a capacitor. When not converting, the DAC cores and 
  88:Drivers/STM32L4xx_HAL_Driver/Src/stm32l4xx_hal_dac.c ****       buffer are completely turned  off between samples and the DAC output is 
ARM GAS  /tmp/ccNW8x26.s 			page 3


  89:Drivers/STM32L4xx_HAL_Driver/Src/stm32l4xx_hal_dac.c ****       tri-stated, therefore  reducing the overall power consumption. A new 
  90:Drivers/STM32L4xx_HAL_Driver/Src/stm32l4xx_hal_dac.c ****       stabilization period is needed before each new conversion.
  91:Drivers/STM32L4xx_HAL_Driver/Src/stm32l4xx_hal_dac.c **** 
  92:Drivers/STM32L4xx_HAL_Driver/Src/stm32l4xx_hal_dac.c ****       The sample and hold allow setting internal or external voltage @
  93:Drivers/STM32L4xx_HAL_Driver/Src/stm32l4xx_hal_dac.c ****       low power consumption cost (output value can be at any given rate either 
  94:Drivers/STM32L4xx_HAL_Driver/Src/stm32l4xx_hal_dac.c ****       by CPU or DMA).
  95:Drivers/STM32L4xx_HAL_Driver/Src/stm32l4xx_hal_dac.c **** 
  96:Drivers/STM32L4xx_HAL_Driver/Src/stm32l4xx_hal_dac.c ****       The Sample and hold block and registers uses either LSI & run in 
  97:Drivers/STM32L4xx_HAL_Driver/Src/stm32l4xx_hal_dac.c ****       several power modes: run mode, sleep mode, low power run, low power sleep 
  98:Drivers/STM32L4xx_HAL_Driver/Src/stm32l4xx_hal_dac.c ****       mode & stop1 mode.
  99:Drivers/STM32L4xx_HAL_Driver/Src/stm32l4xx_hal_dac.c ****           
 100:Drivers/STM32L4xx_HAL_Driver/Src/stm32l4xx_hal_dac.c ****       Low power stop1 mode allows only static conversion.
 101:Drivers/STM32L4xx_HAL_Driver/Src/stm32l4xx_hal_dac.c ****           
 102:Drivers/STM32L4xx_HAL_Driver/Src/stm32l4xx_hal_dac.c ****       To enable Sample and Hold mode 
 103:Drivers/STM32L4xx_HAL_Driver/Src/stm32l4xx_hal_dac.c ****       Enable LSI using HAL_RCC_OscConfig with RCC_OSCILLATORTYPE_LSI &
 104:Drivers/STM32L4xx_HAL_Driver/Src/stm32l4xx_hal_dac.c ****       RCC_LSI_ON parameters.
 105:Drivers/STM32L4xx_HAL_Driver/Src/stm32l4xx_hal_dac.c **** 
 106:Drivers/STM32L4xx_HAL_Driver/Src/stm32l4xx_hal_dac.c ****       Use DAC_InitStructure.DAC_SampleAndHold = DAC_SAMPLEANDHOLD_ENABLE;
 107:Drivers/STM32L4xx_HAL_Driver/Src/stm32l4xx_hal_dac.c ****          & DAC_ChannelConfTypeDef.DAC_SampleAndHoldConfig.DAC_SampleTime,
 108:Drivers/STM32L4xx_HAL_Driver/Src/stm32l4xx_hal_dac.c ****            DAC_HoldTime & DAC_RefreshTime;
 109:Drivers/STM32L4xx_HAL_Driver/Src/stm32l4xx_hal_dac.c ****     
 110:Drivers/STM32L4xx_HAL_Driver/Src/stm32l4xx_hal_dac.c **** 
 111:Drivers/STM32L4xx_HAL_Driver/Src/stm32l4xx_hal_dac.c **** 
 112:Drivers/STM32L4xx_HAL_Driver/Src/stm32l4xx_hal_dac.c ****        *** DAC calibration feature ***
 113:Drivers/STM32L4xx_HAL_Driver/Src/stm32l4xx_hal_dac.c ****        =================================== 
 114:Drivers/STM32L4xx_HAL_Driver/Src/stm32l4xx_hal_dac.c ****       [..] 
 115:Drivers/STM32L4xx_HAL_Driver/Src/stm32l4xx_hal_dac.c ****        (#)  The 2 converters (channel1 & channel2) provide calibration capabilities.  
 116:Drivers/STM32L4xx_HAL_Driver/Src/stm32l4xx_hal_dac.c ****        (++) Calibration aims at correcting some offset of output buffer.
 117:Drivers/STM32L4xx_HAL_Driver/Src/stm32l4xx_hal_dac.c ****        (++) The DAC uses either factory calibration settings OR user defined 
 118:Drivers/STM32L4xx_HAL_Driver/Src/stm32l4xx_hal_dac.c ****            calibration (trimming) settings (i.e. trimming mode).
 119:Drivers/STM32L4xx_HAL_Driver/Src/stm32l4xx_hal_dac.c ****        (++) The user defined settings can be figured out using self calibration 
 120:Drivers/STM32L4xx_HAL_Driver/Src/stm32l4xx_hal_dac.c ****            handled by HAL_DACEx_SelfCalibrate.
 121:Drivers/STM32L4xx_HAL_Driver/Src/stm32l4xx_hal_dac.c ****        (++) HAL_DACEx_SelfCalibrate:
 122:Drivers/STM32L4xx_HAL_Driver/Src/stm32l4xx_hal_dac.c ****        (+++) Runs automatically the calibration.
 123:Drivers/STM32L4xx_HAL_Driver/Src/stm32l4xx_hal_dac.c ****        (+++) Enables the user trimming mode
 124:Drivers/STM32L4xx_HAL_Driver/Src/stm32l4xx_hal_dac.c ****        (+++) Updates a structure with trimming values with fresh calibration 
 125:Drivers/STM32L4xx_HAL_Driver/Src/stm32l4xx_hal_dac.c ****             results. 
 126:Drivers/STM32L4xx_HAL_Driver/Src/stm32l4xx_hal_dac.c ****             The user may store the calibration results for larger 
 127:Drivers/STM32L4xx_HAL_Driver/Src/stm32l4xx_hal_dac.c ****             (ex monitoring the trimming as a function of temperature 
 128:Drivers/STM32L4xx_HAL_Driver/Src/stm32l4xx_hal_dac.c ****             for instance)
 129:Drivers/STM32L4xx_HAL_Driver/Src/stm32l4xx_hal_dac.c **** 
 130:Drivers/STM32L4xx_HAL_Driver/Src/stm32l4xx_hal_dac.c ****        *** DAC wave generation feature ***
 131:Drivers/STM32L4xx_HAL_Driver/Src/stm32l4xx_hal_dac.c ****        =================================== 
 132:Drivers/STM32L4xx_HAL_Driver/Src/stm32l4xx_hal_dac.c ****        [..]     
 133:Drivers/STM32L4xx_HAL_Driver/Src/stm32l4xx_hal_dac.c ****        Both DAC channels can be used to generate
 134:Drivers/STM32L4xx_HAL_Driver/Src/stm32l4xx_hal_dac.c ****          (#) Noise wave 
 135:Drivers/STM32L4xx_HAL_Driver/Src/stm32l4xx_hal_dac.c ****          (#) Triangle wave
 136:Drivers/STM32L4xx_HAL_Driver/Src/stm32l4xx_hal_dac.c ****             
 137:Drivers/STM32L4xx_HAL_Driver/Src/stm32l4xx_hal_dac.c ****        *** DAC data format ***
 138:Drivers/STM32L4xx_HAL_Driver/Src/stm32l4xx_hal_dac.c ****        =======================
 139:Drivers/STM32L4xx_HAL_Driver/Src/stm32l4xx_hal_dac.c ****        [..]   
 140:Drivers/STM32L4xx_HAL_Driver/Src/stm32l4xx_hal_dac.c ****        The DAC data format can be:
 141:Drivers/STM32L4xx_HAL_Driver/Src/stm32l4xx_hal_dac.c ****          (#) 8-bit right alignment using DAC_ALIGN_8B_R
 142:Drivers/STM32L4xx_HAL_Driver/Src/stm32l4xx_hal_dac.c ****          (#) 12-bit left alignment using DAC_ALIGN_12B_L
 143:Drivers/STM32L4xx_HAL_Driver/Src/stm32l4xx_hal_dac.c ****          (#) 12-bit right alignment using DAC_ALIGN_12B_R
 144:Drivers/STM32L4xx_HAL_Driver/Src/stm32l4xx_hal_dac.c ****   
 145:Drivers/STM32L4xx_HAL_Driver/Src/stm32l4xx_hal_dac.c ****        *** DAC data value to voltage correspondence ***  
ARM GAS  /tmp/ccNW8x26.s 			page 4


 146:Drivers/STM32L4xx_HAL_Driver/Src/stm32l4xx_hal_dac.c ****        ================================================ 
 147:Drivers/STM32L4xx_HAL_Driver/Src/stm32l4xx_hal_dac.c ****        [..] 
 148:Drivers/STM32L4xx_HAL_Driver/Src/stm32l4xx_hal_dac.c ****        The analog output voltage on each DAC channel pin is determined
 149:Drivers/STM32L4xx_HAL_Driver/Src/stm32l4xx_hal_dac.c ****        by the following equation:
 150:Drivers/STM32L4xx_HAL_Driver/Src/stm32l4xx_hal_dac.c ****        [..]
 151:Drivers/STM32L4xx_HAL_Driver/Src/stm32l4xx_hal_dac.c ****        DAC_OUTx = VREF+ * DOR / 4095
 152:Drivers/STM32L4xx_HAL_Driver/Src/stm32l4xx_hal_dac.c ****        (+) with  DOR is the Data Output Register
 153:Drivers/STM32L4xx_HAL_Driver/Src/stm32l4xx_hal_dac.c ****        [..]
 154:Drivers/STM32L4xx_HAL_Driver/Src/stm32l4xx_hal_dac.c ****           VEF+ is the input voltage reference (refer to the device datasheet)
 155:Drivers/STM32L4xx_HAL_Driver/Src/stm32l4xx_hal_dac.c ****        [..]
 156:Drivers/STM32L4xx_HAL_Driver/Src/stm32l4xx_hal_dac.c ****         e.g. To set DAC_OUT1 to 0.7V, use
 157:Drivers/STM32L4xx_HAL_Driver/Src/stm32l4xx_hal_dac.c ****        (+) Assuming that VREF+ = 3.3V, DAC_OUT1 = (3.3 * 868) / 4095 = 0.7V
 158:Drivers/STM32L4xx_HAL_Driver/Src/stm32l4xx_hal_dac.c ****   
 159:Drivers/STM32L4xx_HAL_Driver/Src/stm32l4xx_hal_dac.c ****        *** DMA requests ***
 160:Drivers/STM32L4xx_HAL_Driver/Src/stm32l4xx_hal_dac.c ****        =====================
 161:Drivers/STM32L4xx_HAL_Driver/Src/stm32l4xx_hal_dac.c ****        [..]
 162:Drivers/STM32L4xx_HAL_Driver/Src/stm32l4xx_hal_dac.c ****        A DMA1 request can be generated when an external trigger (but not a software trigger) 
 163:Drivers/STM32L4xx_HAL_Driver/Src/stm32l4xx_hal_dac.c ****        occurs if DMA1 requests are enabled using HAL_DAC_Start_DMA(). 
 164:Drivers/STM32L4xx_HAL_Driver/Src/stm32l4xx_hal_dac.c ****        DMA requests are mapped as following:          
 165:Drivers/STM32L4xx_HAL_Driver/Src/stm32l4xx_hal_dac.c ****       (#) DAC channel1: mapped either on
 166:Drivers/STM32L4xx_HAL_Driver/Src/stm32l4xx_hal_dac.c ****       (++) DMA1 request 6 channel3 
 167:Drivers/STM32L4xx_HAL_Driver/Src/stm32l4xx_hal_dac.c ****       (++) or DMA2 request channel4 which must be already configured
 168:Drivers/STM32L4xx_HAL_Driver/Src/stm32l4xx_hal_dac.c ****       (#) DAC channel2 (whenever present): mapped either on
 169:Drivers/STM32L4xx_HAL_Driver/Src/stm32l4xx_hal_dac.c ****       (++) DMA1 request 5 channel4 
 170:Drivers/STM32L4xx_HAL_Driver/Src/stm32l4xx_hal_dac.c ****       (++) or DMA2 request 3 channel5 which must be already configured 
 171:Drivers/STM32L4xx_HAL_Driver/Src/stm32l4xx_hal_dac.c ****      [..]
 172:Drivers/STM32L4xx_HAL_Driver/Src/stm32l4xx_hal_dac.c ****     (@) For Dual mode and specific signal (Triangle and noise) generation please 
 173:Drivers/STM32L4xx_HAL_Driver/Src/stm32l4xx_hal_dac.c ****         refer to Extended Features Driver description        
 174:Drivers/STM32L4xx_HAL_Driver/Src/stm32l4xx_hal_dac.c ****       
 175:Drivers/STM32L4xx_HAL_Driver/Src/stm32l4xx_hal_dac.c ****                       ##### How to use this driver #####
 176:Drivers/STM32L4xx_HAL_Driver/Src/stm32l4xx_hal_dac.c ****   ==============================================================================
 177:Drivers/STM32L4xx_HAL_Driver/Src/stm32l4xx_hal_dac.c ****     [..]          
 178:Drivers/STM32L4xx_HAL_Driver/Src/stm32l4xx_hal_dac.c ****       (+) DAC APB clock must be enabled to get write access to DAC
 179:Drivers/STM32L4xx_HAL_Driver/Src/stm32l4xx_hal_dac.c ****           registers using HAL_DAC_Init()
 180:Drivers/STM32L4xx_HAL_Driver/Src/stm32l4xx_hal_dac.c ****       (+) Configure DAC_OUTx (DAC_OUT1: PA4, DAC_OUT2: PA5) in analog mode.
 181:Drivers/STM32L4xx_HAL_Driver/Src/stm32l4xx_hal_dac.c ****       (+) Configure the DAC channel using HAL_DAC_ConfigChannel() function.
 182:Drivers/STM32L4xx_HAL_Driver/Src/stm32l4xx_hal_dac.c ****       (+) Enable the DAC channel using HAL_DAC_Start() or HAL_DAC_Start_DMA() functions.
 183:Drivers/STM32L4xx_HAL_Driver/Src/stm32l4xx_hal_dac.c **** 
 184:Drivers/STM32L4xx_HAL_Driver/Src/stm32l4xx_hal_dac.c ****      *** Calibration mode IO operation ***
 185:Drivers/STM32L4xx_HAL_Driver/Src/stm32l4xx_hal_dac.c ****      ======================================
 186:Drivers/STM32L4xx_HAL_Driver/Src/stm32l4xx_hal_dac.c ****      [..]    
 187:Drivers/STM32L4xx_HAL_Driver/Src/stm32l4xx_hal_dac.c ****        (+) Retrieve the factory trimming (calibration settings) using HAL_DACEx_GetTrimOffset()
 188:Drivers/STM32L4xx_HAL_Driver/Src/stm32l4xx_hal_dac.c ****        (+) Run the calibration using HAL_DACEx_SelfCalibrate() 
 189:Drivers/STM32L4xx_HAL_Driver/Src/stm32l4xx_hal_dac.c ****        (+) Update the trimming while DAC running using HAL_DACEx_SetUserTrimming()
 190:Drivers/STM32L4xx_HAL_Driver/Src/stm32l4xx_hal_dac.c **** 
 191:Drivers/STM32L4xx_HAL_Driver/Src/stm32l4xx_hal_dac.c ****      *** Polling mode IO operation ***
 192:Drivers/STM32L4xx_HAL_Driver/Src/stm32l4xx_hal_dac.c ****      =================================
 193:Drivers/STM32L4xx_HAL_Driver/Src/stm32l4xx_hal_dac.c ****      [..]    
 194:Drivers/STM32L4xx_HAL_Driver/Src/stm32l4xx_hal_dac.c ****        (+) Start the DAC peripheral using HAL_DAC_Start() 
 195:Drivers/STM32L4xx_HAL_Driver/Src/stm32l4xx_hal_dac.c ****        (+) To read the DAC last data output value, use the HAL_DAC_GetValue() function.
 196:Drivers/STM32L4xx_HAL_Driver/Src/stm32l4xx_hal_dac.c ****        (+) Stop the DAC peripheral using HAL_DAC_Stop()
 197:Drivers/STM32L4xx_HAL_Driver/Src/stm32l4xx_hal_dac.c ****        
 198:Drivers/STM32L4xx_HAL_Driver/Src/stm32l4xx_hal_dac.c ****      *** DMA mode IO operation ***    
 199:Drivers/STM32L4xx_HAL_Driver/Src/stm32l4xx_hal_dac.c ****      ==============================
 200:Drivers/STM32L4xx_HAL_Driver/Src/stm32l4xx_hal_dac.c ****      [..]    
 201:Drivers/STM32L4xx_HAL_Driver/Src/stm32l4xx_hal_dac.c ****        (+) Start the DAC peripheral using HAL_DAC_Start_DMA(), at this stage the user specify the l
 202:Drivers/STM32L4xx_HAL_Driver/Src/stm32l4xx_hal_dac.c ****            of data to be transferred at each end of conversion
ARM GAS  /tmp/ccNW8x26.s 			page 5


 203:Drivers/STM32L4xx_HAL_Driver/Src/stm32l4xx_hal_dac.c ****        (+) At the middle of data transfer HAL_DAC_ConvHalfCpltCallbackCh1() or HAL_DACEx_ConvHalfCp
 204:Drivers/STM32L4xx_HAL_Driver/Src/stm32l4xx_hal_dac.c ****            function is executed and user can add his own code by customization of function pointer 
 205:Drivers/STM32L4xx_HAL_Driver/Src/stm32l4xx_hal_dac.c ****            HAL_DAC_ConvHalfCpltCallbackCh1() or HAL_DACEx_ConvHalfCpltCallbackCh2()
 206:Drivers/STM32L4xx_HAL_Driver/Src/stm32l4xx_hal_dac.c ****        (+) At The end of data transfer HAL_DAC_ConvCpltCallbackCh1() or HAL_DACEx_ConvHalfCpltCallb
 207:Drivers/STM32L4xx_HAL_Driver/Src/stm32l4xx_hal_dac.c ****            function is executed and user can add his own code by customization of function pointer 
 208:Drivers/STM32L4xx_HAL_Driver/Src/stm32l4xx_hal_dac.c ****            HAL_DAC_ConvCpltCallbackCh1() or HAL_DACEx_ConvHalfCpltCallbackCh2()
 209:Drivers/STM32L4xx_HAL_Driver/Src/stm32l4xx_hal_dac.c ****        (+) In case of transfer Error, HAL_DAC_ErrorCallbackCh1() function is executed and user can 
 210:Drivers/STM32L4xx_HAL_Driver/Src/stm32l4xx_hal_dac.c ****             add his own code by customization of function pointer HAL_DAC_ErrorCallbackCh1
 211:Drivers/STM32L4xx_HAL_Driver/Src/stm32l4xx_hal_dac.c ****        (+) In case of DMA underrun, DAC interruption triggers and execute internal function HAL_DAC
 212:Drivers/STM32L4xx_HAL_Driver/Src/stm32l4xx_hal_dac.c ****            HAL_DAC_DMAUnderrunCallbackCh1() or HAL_DACEx_DMAUnderrunCallbackCh2()  
 213:Drivers/STM32L4xx_HAL_Driver/Src/stm32l4xx_hal_dac.c ****            function is executed and user can add his own code by customization of function pointer 
 214:Drivers/STM32L4xx_HAL_Driver/Src/stm32l4xx_hal_dac.c ****            HAL_DAC_DMAUnderrunCallbackCh1() or HAL_DACEx_DMAUnderrunCallbackCh2() and
 215:Drivers/STM32L4xx_HAL_Driver/Src/stm32l4xx_hal_dac.c ****            add his own code by customization of function pointer HAL_DAC_ErrorCallbackCh1()
 216:Drivers/STM32L4xx_HAL_Driver/Src/stm32l4xx_hal_dac.c ****        (+) Stop the DAC peripheral using HAL_DAC_Stop_DMA()
 217:Drivers/STM32L4xx_HAL_Driver/Src/stm32l4xx_hal_dac.c ****                     
 218:Drivers/STM32L4xx_HAL_Driver/Src/stm32l4xx_hal_dac.c ****      *** DAC HAL driver macros list ***
 219:Drivers/STM32L4xx_HAL_Driver/Src/stm32l4xx_hal_dac.c ****      ============================================= 
 220:Drivers/STM32L4xx_HAL_Driver/Src/stm32l4xx_hal_dac.c ****      [..]
 221:Drivers/STM32L4xx_HAL_Driver/Src/stm32l4xx_hal_dac.c ****        Below the list of most used macros in DAC HAL driver.
 222:Drivers/STM32L4xx_HAL_Driver/Src/stm32l4xx_hal_dac.c ****        
 223:Drivers/STM32L4xx_HAL_Driver/Src/stm32l4xx_hal_dac.c ****       (+) __HAL_DAC_ENABLE : Enable the DAC peripheral
 224:Drivers/STM32L4xx_HAL_Driver/Src/stm32l4xx_hal_dac.c ****       (+) __HAL_DAC_DISABLE : Disable the DAC peripheral
 225:Drivers/STM32L4xx_HAL_Driver/Src/stm32l4xx_hal_dac.c ****       (+) __HAL_DAC_CLEAR_FLAG: Clear the DAC's pending flags
 226:Drivers/STM32L4xx_HAL_Driver/Src/stm32l4xx_hal_dac.c ****       (+) __HAL_DAC_GET_FLAG: Get the selected DAC's flag status
 227:Drivers/STM32L4xx_HAL_Driver/Src/stm32l4xx_hal_dac.c ****       
 228:Drivers/STM32L4xx_HAL_Driver/Src/stm32l4xx_hal_dac.c ****      [..]
 229:Drivers/STM32L4xx_HAL_Driver/Src/stm32l4xx_hal_dac.c ****       (@) You can refer to the DAC HAL driver header file for more useful macros  
 230:Drivers/STM32L4xx_HAL_Driver/Src/stm32l4xx_hal_dac.c ****    
 231:Drivers/STM32L4xx_HAL_Driver/Src/stm32l4xx_hal_dac.c ****  @endverbatim    
 232:Drivers/STM32L4xx_HAL_Driver/Src/stm32l4xx_hal_dac.c ****   ******************************************************************************
 233:Drivers/STM32L4xx_HAL_Driver/Src/stm32l4xx_hal_dac.c ****   * @attention
 234:Drivers/STM32L4xx_HAL_Driver/Src/stm32l4xx_hal_dac.c ****   *
 235:Drivers/STM32L4xx_HAL_Driver/Src/stm32l4xx_hal_dac.c ****   * <h2><center>&copy; COPYRIGHT(c) 2017 STMicroelectronics</center></h2>
 236:Drivers/STM32L4xx_HAL_Driver/Src/stm32l4xx_hal_dac.c ****   *
 237:Drivers/STM32L4xx_HAL_Driver/Src/stm32l4xx_hal_dac.c ****   * Redistribution and use in source and binary forms, with or without modification,
 238:Drivers/STM32L4xx_HAL_Driver/Src/stm32l4xx_hal_dac.c ****   * are permitted provided that the following conditions are met:
 239:Drivers/STM32L4xx_HAL_Driver/Src/stm32l4xx_hal_dac.c ****   *   1. Redistributions of source code must retain the above copyright notice,
 240:Drivers/STM32L4xx_HAL_Driver/Src/stm32l4xx_hal_dac.c ****   *      this list of conditions and the following disclaimer.
 241:Drivers/STM32L4xx_HAL_Driver/Src/stm32l4xx_hal_dac.c ****   *   2. Redistributions in binary form must reproduce the above copyright notice,
 242:Drivers/STM32L4xx_HAL_Driver/Src/stm32l4xx_hal_dac.c ****   *      this list of conditions and the following disclaimer in the documentation
 243:Drivers/STM32L4xx_HAL_Driver/Src/stm32l4xx_hal_dac.c ****   *      and/or other materials provided with the distribution.
 244:Drivers/STM32L4xx_HAL_Driver/Src/stm32l4xx_hal_dac.c ****   *   3. Neither the name of STMicroelectronics nor the names of its contributors
 245:Drivers/STM32L4xx_HAL_Driver/Src/stm32l4xx_hal_dac.c ****   *      may be used to endorse or promote products derived from this software
 246:Drivers/STM32L4xx_HAL_Driver/Src/stm32l4xx_hal_dac.c ****   *      without specific prior written permission.
 247:Drivers/STM32L4xx_HAL_Driver/Src/stm32l4xx_hal_dac.c ****   *
 248:Drivers/STM32L4xx_HAL_Driver/Src/stm32l4xx_hal_dac.c ****   * THIS SOFTWARE IS PROVIDED BY THE COPYRIGHT HOLDERS AND CONTRIBUTORS "AS IS"
 249:Drivers/STM32L4xx_HAL_Driver/Src/stm32l4xx_hal_dac.c ****   * AND ANY EXPRESS OR IMPLIED WARRANTIES, INCLUDING, BUT NOT LIMITED TO, THE
 250:Drivers/STM32L4xx_HAL_Driver/Src/stm32l4xx_hal_dac.c ****   * IMPLIED WARRANTIES OF MERCHANTABILITY AND FITNESS FOR A PARTICULAR PURPOSE ARE
 251:Drivers/STM32L4xx_HAL_Driver/Src/stm32l4xx_hal_dac.c ****   * DISCLAIMED. IN NO EVENT SHALL THE COPYRIGHT HOLDER OR CONTRIBUTORS BE LIABLE
 252:Drivers/STM32L4xx_HAL_Driver/Src/stm32l4xx_hal_dac.c ****   * FOR ANY DIRECT, INDIRECT, INCIDENTAL, SPECIAL, EXEMPLARY, OR CONSEQUENTIAL
 253:Drivers/STM32L4xx_HAL_Driver/Src/stm32l4xx_hal_dac.c ****   * DAMAGES (INCLUDING, BUT NOT LIMITED TO, PROCUREMENT OF SUBSTITUTE GOODS OR
 254:Drivers/STM32L4xx_HAL_Driver/Src/stm32l4xx_hal_dac.c ****   * SERVICES; LOSS OF USE, DATA, OR PROFITS; OR BUSINESS INTERRUPTION) HOWEVER
 255:Drivers/STM32L4xx_HAL_Driver/Src/stm32l4xx_hal_dac.c ****   * CAUSED AND ON ANY THEORY OF LIABILITY, WHETHER IN CONTRACT, STRICT LIABILITY,
 256:Drivers/STM32L4xx_HAL_Driver/Src/stm32l4xx_hal_dac.c ****   * OR TORT (INCLUDING NEGLIGENCE OR OTHERWISE) ARISING IN ANY WAY OUT OF THE USE
 257:Drivers/STM32L4xx_HAL_Driver/Src/stm32l4xx_hal_dac.c ****   * OF THIS SOFTWARE, EVEN IF ADVISED OF THE POSSIBILITY OF SUCH DAMAGE.
 258:Drivers/STM32L4xx_HAL_Driver/Src/stm32l4xx_hal_dac.c ****   *
 259:Drivers/STM32L4xx_HAL_Driver/Src/stm32l4xx_hal_dac.c ****   ******************************************************************************
ARM GAS  /tmp/ccNW8x26.s 			page 6


 260:Drivers/STM32L4xx_HAL_Driver/Src/stm32l4xx_hal_dac.c ****   */ 
 261:Drivers/STM32L4xx_HAL_Driver/Src/stm32l4xx_hal_dac.c **** 
 262:Drivers/STM32L4xx_HAL_Driver/Src/stm32l4xx_hal_dac.c **** 
 263:Drivers/STM32L4xx_HAL_Driver/Src/stm32l4xx_hal_dac.c **** /* Includes ------------------------------------------------------------------*/
 264:Drivers/STM32L4xx_HAL_Driver/Src/stm32l4xx_hal_dac.c **** #include "stm32l4xx_hal.h"
 265:Drivers/STM32L4xx_HAL_Driver/Src/stm32l4xx_hal_dac.c **** 
 266:Drivers/STM32L4xx_HAL_Driver/Src/stm32l4xx_hal_dac.c **** /** @addtogroup STM32L4xx_HAL_Driver
 267:Drivers/STM32L4xx_HAL_Driver/Src/stm32l4xx_hal_dac.c ****   * @{
 268:Drivers/STM32L4xx_HAL_Driver/Src/stm32l4xx_hal_dac.c ****   */
 269:Drivers/STM32L4xx_HAL_Driver/Src/stm32l4xx_hal_dac.c **** 
 270:Drivers/STM32L4xx_HAL_Driver/Src/stm32l4xx_hal_dac.c ****   /** @defgroup DAC DAC
 271:Drivers/STM32L4xx_HAL_Driver/Src/stm32l4xx_hal_dac.c ****   * @brief DAC driver modules  
 272:Drivers/STM32L4xx_HAL_Driver/Src/stm32l4xx_hal_dac.c ****   * @{
 273:Drivers/STM32L4xx_HAL_Driver/Src/stm32l4xx_hal_dac.c ****   */ 
 274:Drivers/STM32L4xx_HAL_Driver/Src/stm32l4xx_hal_dac.c **** 
 275:Drivers/STM32L4xx_HAL_Driver/Src/stm32l4xx_hal_dac.c **** #ifdef HAL_DAC_MODULE_ENABLED
 276:Drivers/STM32L4xx_HAL_Driver/Src/stm32l4xx_hal_dac.c **** 
 277:Drivers/STM32L4xx_HAL_Driver/Src/stm32l4xx_hal_dac.c **** /* Private typedef -----------------------------------------------------------*/
 278:Drivers/STM32L4xx_HAL_Driver/Src/stm32l4xx_hal_dac.c **** /* Private define ------------------------------------------------------------*/
 279:Drivers/STM32L4xx_HAL_Driver/Src/stm32l4xx_hal_dac.c **** /* Private constants ---------------------------------------------------------*/
 280:Drivers/STM32L4xx_HAL_Driver/Src/stm32l4xx_hal_dac.c **** /** @addtogroup DAC_Private_Constants DAC Private Constants
 281:Drivers/STM32L4xx_HAL_Driver/Src/stm32l4xx_hal_dac.c ****   * @{
 282:Drivers/STM32L4xx_HAL_Driver/Src/stm32l4xx_hal_dac.c ****   */
 283:Drivers/STM32L4xx_HAL_Driver/Src/stm32l4xx_hal_dac.c **** #define TIMEOUT_DAC_CALIBCONFIG        ((uint32_t)1)         /* 1   ms        */
 284:Drivers/STM32L4xx_HAL_Driver/Src/stm32l4xx_hal_dac.c **** #define HFSEL_ENABLE_THRESHOLD_80MHZ   ((uint32_t)80000000)  /* 80 mHz        */
 285:Drivers/STM32L4xx_HAL_Driver/Src/stm32l4xx_hal_dac.c **** /**
 286:Drivers/STM32L4xx_HAL_Driver/Src/stm32l4xx_hal_dac.c ****   * @}
 287:Drivers/STM32L4xx_HAL_Driver/Src/stm32l4xx_hal_dac.c ****   */ 
 288:Drivers/STM32L4xx_HAL_Driver/Src/stm32l4xx_hal_dac.c **** 
 289:Drivers/STM32L4xx_HAL_Driver/Src/stm32l4xx_hal_dac.c **** /* Private macro -------------------------------------------------------------*/
 290:Drivers/STM32L4xx_HAL_Driver/Src/stm32l4xx_hal_dac.c **** /* Private macro -------------------------------------------------------------*/
 291:Drivers/STM32L4xx_HAL_Driver/Src/stm32l4xx_hal_dac.c **** /* Private variables ---------------------------------------------------------*/
 292:Drivers/STM32L4xx_HAL_Driver/Src/stm32l4xx_hal_dac.c **** /* Private function prototypes -----------------------------------------------*/
 293:Drivers/STM32L4xx_HAL_Driver/Src/stm32l4xx_hal_dac.c **** /** @defgroup DAC_Private_Functions DAC Private Functions
 294:Drivers/STM32L4xx_HAL_Driver/Src/stm32l4xx_hal_dac.c ****   * @{
 295:Drivers/STM32L4xx_HAL_Driver/Src/stm32l4xx_hal_dac.c ****   */
 296:Drivers/STM32L4xx_HAL_Driver/Src/stm32l4xx_hal_dac.c **** static void DAC_DMAConvCpltCh1(DMA_HandleTypeDef *hdma);
 297:Drivers/STM32L4xx_HAL_Driver/Src/stm32l4xx_hal_dac.c **** static void DAC_DMAErrorCh1(DMA_HandleTypeDef *hdma);
 298:Drivers/STM32L4xx_HAL_Driver/Src/stm32l4xx_hal_dac.c **** static void DAC_DMAHalfConvCpltCh1(DMA_HandleTypeDef *hdma); 
 299:Drivers/STM32L4xx_HAL_Driver/Src/stm32l4xx_hal_dac.c **** /**
 300:Drivers/STM32L4xx_HAL_Driver/Src/stm32l4xx_hal_dac.c ****   * @}
 301:Drivers/STM32L4xx_HAL_Driver/Src/stm32l4xx_hal_dac.c ****   */
 302:Drivers/STM32L4xx_HAL_Driver/Src/stm32l4xx_hal_dac.c **** /* Exported functions -------------------------------------------------------*/
 303:Drivers/STM32L4xx_HAL_Driver/Src/stm32l4xx_hal_dac.c **** 
 304:Drivers/STM32L4xx_HAL_Driver/Src/stm32l4xx_hal_dac.c **** /** @defgroup DAC_Exported_Functions DAC Exported Functions
 305:Drivers/STM32L4xx_HAL_Driver/Src/stm32l4xx_hal_dac.c ****   * @{
 306:Drivers/STM32L4xx_HAL_Driver/Src/stm32l4xx_hal_dac.c ****   */
 307:Drivers/STM32L4xx_HAL_Driver/Src/stm32l4xx_hal_dac.c **** 
 308:Drivers/STM32L4xx_HAL_Driver/Src/stm32l4xx_hal_dac.c **** /** @defgroup DAC_Exported_Functions_Group1 Initialization and de-initialization functions 
 309:Drivers/STM32L4xx_HAL_Driver/Src/stm32l4xx_hal_dac.c ****  *  @brief    Initialization and Configuration functions 
 310:Drivers/STM32L4xx_HAL_Driver/Src/stm32l4xx_hal_dac.c ****  *
 311:Drivers/STM32L4xx_HAL_Driver/Src/stm32l4xx_hal_dac.c **** @verbatim    
 312:Drivers/STM32L4xx_HAL_Driver/Src/stm32l4xx_hal_dac.c ****   ==============================================================================
 313:Drivers/STM32L4xx_HAL_Driver/Src/stm32l4xx_hal_dac.c ****               ##### Initialization and de-initialization functions #####
 314:Drivers/STM32L4xx_HAL_Driver/Src/stm32l4xx_hal_dac.c ****   ==============================================================================
 315:Drivers/STM32L4xx_HAL_Driver/Src/stm32l4xx_hal_dac.c ****     [..]  This section provides functions allowing to:
 316:Drivers/STM32L4xx_HAL_Driver/Src/stm32l4xx_hal_dac.c ****       (+) Initialize and configure the DAC. 
ARM GAS  /tmp/ccNW8x26.s 			page 7


 317:Drivers/STM32L4xx_HAL_Driver/Src/stm32l4xx_hal_dac.c ****       (+) De-initialize the DAC. 
 318:Drivers/STM32L4xx_HAL_Driver/Src/stm32l4xx_hal_dac.c ****          
 319:Drivers/STM32L4xx_HAL_Driver/Src/stm32l4xx_hal_dac.c **** @endverbatim
 320:Drivers/STM32L4xx_HAL_Driver/Src/stm32l4xx_hal_dac.c ****   * @{
 321:Drivers/STM32L4xx_HAL_Driver/Src/stm32l4xx_hal_dac.c ****   */
 322:Drivers/STM32L4xx_HAL_Driver/Src/stm32l4xx_hal_dac.c **** 
 323:Drivers/STM32L4xx_HAL_Driver/Src/stm32l4xx_hal_dac.c **** /**
 324:Drivers/STM32L4xx_HAL_Driver/Src/stm32l4xx_hal_dac.c ****   * @brief  Initialize the DAC peripheral according to the specified parameters
 325:Drivers/STM32L4xx_HAL_Driver/Src/stm32l4xx_hal_dac.c ****   *         in the DAC_InitStruct and initialize the associated handle.
 326:Drivers/STM32L4xx_HAL_Driver/Src/stm32l4xx_hal_dac.c ****   * @param  hdac: pointer to a DAC_HandleTypeDef structure that contains
 327:Drivers/STM32L4xx_HAL_Driver/Src/stm32l4xx_hal_dac.c ****   *         the configuration information for the specified DAC.
 328:Drivers/STM32L4xx_HAL_Driver/Src/stm32l4xx_hal_dac.c ****   * @retval HAL status
 329:Drivers/STM32L4xx_HAL_Driver/Src/stm32l4xx_hal_dac.c ****   */
 330:Drivers/STM32L4xx_HAL_Driver/Src/stm32l4xx_hal_dac.c **** HAL_StatusTypeDef HAL_DAC_Init(DAC_HandleTypeDef* hdac)
 331:Drivers/STM32L4xx_HAL_Driver/Src/stm32l4xx_hal_dac.c **** { 
 332:Drivers/STM32L4xx_HAL_Driver/Src/stm32l4xx_hal_dac.c ****   /* Check DAC handle */
 333:Drivers/STM32L4xx_HAL_Driver/Src/stm32l4xx_hal_dac.c ****   if(hdac == NULL)
 334:Drivers/STM32L4xx_HAL_Driver/Src/stm32l4xx_hal_dac.c ****   {
 335:Drivers/STM32L4xx_HAL_Driver/Src/stm32l4xx_hal_dac.c ****      return HAL_ERROR;
 336:Drivers/STM32L4xx_HAL_Driver/Src/stm32l4xx_hal_dac.c ****   }
 337:Drivers/STM32L4xx_HAL_Driver/Src/stm32l4xx_hal_dac.c ****   /* Check the parameters */
 338:Drivers/STM32L4xx_HAL_Driver/Src/stm32l4xx_hal_dac.c ****   assert_param(IS_DAC_ALL_INSTANCE(hdac->Instance));
 339:Drivers/STM32L4xx_HAL_Driver/Src/stm32l4xx_hal_dac.c ****   
 340:Drivers/STM32L4xx_HAL_Driver/Src/stm32l4xx_hal_dac.c ****   if(hdac->State == HAL_DAC_STATE_RESET)
 341:Drivers/STM32L4xx_HAL_Driver/Src/stm32l4xx_hal_dac.c ****   {  
 342:Drivers/STM32L4xx_HAL_Driver/Src/stm32l4xx_hal_dac.c ****     /* Allocate lock resource and initialize it */
 343:Drivers/STM32L4xx_HAL_Driver/Src/stm32l4xx_hal_dac.c ****     hdac->Lock = HAL_UNLOCKED;
 344:Drivers/STM32L4xx_HAL_Driver/Src/stm32l4xx_hal_dac.c **** 
 345:Drivers/STM32L4xx_HAL_Driver/Src/stm32l4xx_hal_dac.c ****     /* Init the low level hardware */
 346:Drivers/STM32L4xx_HAL_Driver/Src/stm32l4xx_hal_dac.c ****     HAL_DAC_MspInit(hdac);
 347:Drivers/STM32L4xx_HAL_Driver/Src/stm32l4xx_hal_dac.c ****   }
 348:Drivers/STM32L4xx_HAL_Driver/Src/stm32l4xx_hal_dac.c ****   
 349:Drivers/STM32L4xx_HAL_Driver/Src/stm32l4xx_hal_dac.c ****   /* Initialize the DAC state*/
 350:Drivers/STM32L4xx_HAL_Driver/Src/stm32l4xx_hal_dac.c ****   hdac->State = HAL_DAC_STATE_BUSY;
 351:Drivers/STM32L4xx_HAL_Driver/Src/stm32l4xx_hal_dac.c ****   
 352:Drivers/STM32L4xx_HAL_Driver/Src/stm32l4xx_hal_dac.c ****   /* Set DAC error code to none */
 353:Drivers/STM32L4xx_HAL_Driver/Src/stm32l4xx_hal_dac.c ****   hdac->ErrorCode = HAL_DAC_ERROR_NONE;
 354:Drivers/STM32L4xx_HAL_Driver/Src/stm32l4xx_hal_dac.c ****   
 355:Drivers/STM32L4xx_HAL_Driver/Src/stm32l4xx_hal_dac.c ****   /* Initialize the DAC state*/
 356:Drivers/STM32L4xx_HAL_Driver/Src/stm32l4xx_hal_dac.c ****   hdac->State = HAL_DAC_STATE_READY;
 357:Drivers/STM32L4xx_HAL_Driver/Src/stm32l4xx_hal_dac.c ****   
 358:Drivers/STM32L4xx_HAL_Driver/Src/stm32l4xx_hal_dac.c ****   /* Return function status */
 359:Drivers/STM32L4xx_HAL_Driver/Src/stm32l4xx_hal_dac.c ****   return HAL_OK;
 360:Drivers/STM32L4xx_HAL_Driver/Src/stm32l4xx_hal_dac.c **** }
 361:Drivers/STM32L4xx_HAL_Driver/Src/stm32l4xx_hal_dac.c **** 
 362:Drivers/STM32L4xx_HAL_Driver/Src/stm32l4xx_hal_dac.c **** /**
 363:Drivers/STM32L4xx_HAL_Driver/Src/stm32l4xx_hal_dac.c ****   * @brief  Deinitialize the DAC peripheral registers to their default reset values.
 364:Drivers/STM32L4xx_HAL_Driver/Src/stm32l4xx_hal_dac.c ****   * @param  hdac: pointer to a DAC_HandleTypeDef structure that contains
 365:Drivers/STM32L4xx_HAL_Driver/Src/stm32l4xx_hal_dac.c ****   *         the configuration information for the specified DAC.
 366:Drivers/STM32L4xx_HAL_Driver/Src/stm32l4xx_hal_dac.c ****   * @retval HAL status
 367:Drivers/STM32L4xx_HAL_Driver/Src/stm32l4xx_hal_dac.c ****   */
 368:Drivers/STM32L4xx_HAL_Driver/Src/stm32l4xx_hal_dac.c **** HAL_StatusTypeDef HAL_DAC_DeInit(DAC_HandleTypeDef* hdac)
 369:Drivers/STM32L4xx_HAL_Driver/Src/stm32l4xx_hal_dac.c **** {
 370:Drivers/STM32L4xx_HAL_Driver/Src/stm32l4xx_hal_dac.c ****   /* Check DAC handle */
 371:Drivers/STM32L4xx_HAL_Driver/Src/stm32l4xx_hal_dac.c ****   if(hdac == NULL)
 372:Drivers/STM32L4xx_HAL_Driver/Src/stm32l4xx_hal_dac.c ****   {
 373:Drivers/STM32L4xx_HAL_Driver/Src/stm32l4xx_hal_dac.c ****      return HAL_ERROR;
ARM GAS  /tmp/ccNW8x26.s 			page 8


 374:Drivers/STM32L4xx_HAL_Driver/Src/stm32l4xx_hal_dac.c ****   }
 375:Drivers/STM32L4xx_HAL_Driver/Src/stm32l4xx_hal_dac.c **** 
 376:Drivers/STM32L4xx_HAL_Driver/Src/stm32l4xx_hal_dac.c ****   /* Check the parameters */
 377:Drivers/STM32L4xx_HAL_Driver/Src/stm32l4xx_hal_dac.c ****   assert_param(IS_DAC_ALL_INSTANCE(hdac->Instance));
 378:Drivers/STM32L4xx_HAL_Driver/Src/stm32l4xx_hal_dac.c **** 
 379:Drivers/STM32L4xx_HAL_Driver/Src/stm32l4xx_hal_dac.c ****   /* Change DAC state */
 380:Drivers/STM32L4xx_HAL_Driver/Src/stm32l4xx_hal_dac.c ****   hdac->State = HAL_DAC_STATE_BUSY;
 381:Drivers/STM32L4xx_HAL_Driver/Src/stm32l4xx_hal_dac.c **** 
 382:Drivers/STM32L4xx_HAL_Driver/Src/stm32l4xx_hal_dac.c ****   /* DeInit the low level hardware */
 383:Drivers/STM32L4xx_HAL_Driver/Src/stm32l4xx_hal_dac.c ****   HAL_DAC_MspDeInit(hdac);
 384:Drivers/STM32L4xx_HAL_Driver/Src/stm32l4xx_hal_dac.c **** 
 385:Drivers/STM32L4xx_HAL_Driver/Src/stm32l4xx_hal_dac.c ****   /* Set DAC error code to none */
 386:Drivers/STM32L4xx_HAL_Driver/Src/stm32l4xx_hal_dac.c ****   hdac->ErrorCode = HAL_DAC_ERROR_NONE;
 387:Drivers/STM32L4xx_HAL_Driver/Src/stm32l4xx_hal_dac.c **** 
 388:Drivers/STM32L4xx_HAL_Driver/Src/stm32l4xx_hal_dac.c ****   /* Change DAC state */
 389:Drivers/STM32L4xx_HAL_Driver/Src/stm32l4xx_hal_dac.c ****   hdac->State = HAL_DAC_STATE_RESET;
 390:Drivers/STM32L4xx_HAL_Driver/Src/stm32l4xx_hal_dac.c **** 
 391:Drivers/STM32L4xx_HAL_Driver/Src/stm32l4xx_hal_dac.c ****   /* Release Lock */
 392:Drivers/STM32L4xx_HAL_Driver/Src/stm32l4xx_hal_dac.c ****   __HAL_UNLOCK(hdac);
 393:Drivers/STM32L4xx_HAL_Driver/Src/stm32l4xx_hal_dac.c **** 
 394:Drivers/STM32L4xx_HAL_Driver/Src/stm32l4xx_hal_dac.c ****   /* Return function status */
 395:Drivers/STM32L4xx_HAL_Driver/Src/stm32l4xx_hal_dac.c ****   return HAL_OK;
 396:Drivers/STM32L4xx_HAL_Driver/Src/stm32l4xx_hal_dac.c **** }
 397:Drivers/STM32L4xx_HAL_Driver/Src/stm32l4xx_hal_dac.c **** 
 398:Drivers/STM32L4xx_HAL_Driver/Src/stm32l4xx_hal_dac.c **** /**
 399:Drivers/STM32L4xx_HAL_Driver/Src/stm32l4xx_hal_dac.c ****   * @brief  Initialize the DAC MSP.
 400:Drivers/STM32L4xx_HAL_Driver/Src/stm32l4xx_hal_dac.c ****   * @param  hdac: pointer to a DAC_HandleTypeDef structure that contains
 401:Drivers/STM32L4xx_HAL_Driver/Src/stm32l4xx_hal_dac.c ****   *         the configuration information for the specified DAC.
 402:Drivers/STM32L4xx_HAL_Driver/Src/stm32l4xx_hal_dac.c ****   * @retval None
 403:Drivers/STM32L4xx_HAL_Driver/Src/stm32l4xx_hal_dac.c ****   */
 404:Drivers/STM32L4xx_HAL_Driver/Src/stm32l4xx_hal_dac.c **** __weak void HAL_DAC_MspInit(DAC_HandleTypeDef* hdac)
 405:Drivers/STM32L4xx_HAL_Driver/Src/stm32l4xx_hal_dac.c **** { 
  28              		.loc 1 405 0
  29              		.cfi_startproc
  30              		@ args = 0, pretend = 0, frame = 0
  31              		@ frame_needed = 0, uses_anonymous_args = 0
  32              		@ link register save eliminated.
  33              	.LVL0:
  34 0000 7047     		bx	lr
  35              		.cfi_endproc
  36              	.LFE311:
  38              		.section	.text.HAL_DAC_Init,"ax",%progbits
  39              		.align	1
  40              		.global	HAL_DAC_Init
  41              		.syntax unified
  42              		.thumb
  43              		.thumb_func
  44              		.fpu fpv4-sp-d16
  46              	HAL_DAC_Init:
  47              	.LFB309:
 331:Drivers/STM32L4xx_HAL_Driver/Src/stm32l4xx_hal_dac.c ****   /* Check DAC handle */
  48              		.loc 1 331 0
  49              		.cfi_startproc
  50              		@ args = 0, pretend = 0, frame = 0
  51              		@ frame_needed = 0, uses_anonymous_args = 0
  52              	.LVL1:
 333:Drivers/STM32L4xx_HAL_Driver/Src/stm32l4xx_hal_dac.c ****   {
ARM GAS  /tmp/ccNW8x26.s 			page 9


  53              		.loc 1 333 0
  54 0000 70B1     		cbz	r0, .L5
 331:Drivers/STM32L4xx_HAL_Driver/Src/stm32l4xx_hal_dac.c ****   /* Check DAC handle */
  55              		.loc 1 331 0
  56 0002 10B5     		push	{r4, lr}
  57              	.LCFI0:
  58              		.cfi_def_cfa_offset 8
  59              		.cfi_offset 4, -8
  60              		.cfi_offset 14, -4
  61 0004 0446     		mov	r4, r0
 340:Drivers/STM32L4xx_HAL_Driver/Src/stm32l4xx_hal_dac.c ****   {  
  62              		.loc 1 340 0
  63 0006 0379     		ldrb	r3, [r0, #4]	@ zero_extendqisi2
  64 0008 33B1     		cbz	r3, .L10
  65              	.LVL2:
  66              	.L4:
 350:Drivers/STM32L4xx_HAL_Driver/Src/stm32l4xx_hal_dac.c ****   
  67              		.loc 1 350 0
  68 000a 0223     		movs	r3, #2
  69 000c 2371     		strb	r3, [r4, #4]
 353:Drivers/STM32L4xx_HAL_Driver/Src/stm32l4xx_hal_dac.c ****   
  70              		.loc 1 353 0
  71 000e 0020     		movs	r0, #0
  72 0010 2061     		str	r0, [r4, #16]
 356:Drivers/STM32L4xx_HAL_Driver/Src/stm32l4xx_hal_dac.c ****   
  73              		.loc 1 356 0
  74 0012 0123     		movs	r3, #1
  75 0014 2371     		strb	r3, [r4, #4]
 359:Drivers/STM32L4xx_HAL_Driver/Src/stm32l4xx_hal_dac.c **** }
  76              		.loc 1 359 0
  77 0016 10BD     		pop	{r4, pc}
  78              	.LVL3:
  79              	.L10:
 343:Drivers/STM32L4xx_HAL_Driver/Src/stm32l4xx_hal_dac.c **** 
  80              		.loc 1 343 0
  81 0018 4371     		strb	r3, [r0, #5]
 346:Drivers/STM32L4xx_HAL_Driver/Src/stm32l4xx_hal_dac.c ****   }
  82              		.loc 1 346 0
  83 001a FFF7FEFF 		bl	HAL_DAC_MspInit
  84              	.LVL4:
  85 001e F4E7     		b	.L4
  86              	.LVL5:
  87              	.L5:
  88              	.LCFI1:
  89              		.cfi_def_cfa_offset 0
  90              		.cfi_restore 4
  91              		.cfi_restore 14
 335:Drivers/STM32L4xx_HAL_Driver/Src/stm32l4xx_hal_dac.c ****   }
  92              		.loc 1 335 0
  93 0020 0120     		movs	r0, #1
  94              	.LVL6:
  95 0022 7047     		bx	lr
  96              		.cfi_endproc
  97              	.LFE309:
  99              		.section	.text.HAL_DAC_MspDeInit,"ax",%progbits
 100              		.align	1
 101              		.weak	HAL_DAC_MspDeInit
ARM GAS  /tmp/ccNW8x26.s 			page 10


 102              		.syntax unified
 103              		.thumb
 104              		.thumb_func
 105              		.fpu fpv4-sp-d16
 107              	HAL_DAC_MspDeInit:
 108              	.LFB312:
 406:Drivers/STM32L4xx_HAL_Driver/Src/stm32l4xx_hal_dac.c ****   /* Prevent unused argument(s) compilation warning */
 407:Drivers/STM32L4xx_HAL_Driver/Src/stm32l4xx_hal_dac.c ****   UNUSED(hdac);
 408:Drivers/STM32L4xx_HAL_Driver/Src/stm32l4xx_hal_dac.c **** 
 409:Drivers/STM32L4xx_HAL_Driver/Src/stm32l4xx_hal_dac.c ****   /* NOTE : This function should not be modified, when the callback is needed,
 410:Drivers/STM32L4xx_HAL_Driver/Src/stm32l4xx_hal_dac.c ****             the HAL_DAC_MspInit could be implemented in the user file
 411:Drivers/STM32L4xx_HAL_Driver/Src/stm32l4xx_hal_dac.c ****    */ 
 412:Drivers/STM32L4xx_HAL_Driver/Src/stm32l4xx_hal_dac.c **** }
 413:Drivers/STM32L4xx_HAL_Driver/Src/stm32l4xx_hal_dac.c **** 
 414:Drivers/STM32L4xx_HAL_Driver/Src/stm32l4xx_hal_dac.c **** /**
 415:Drivers/STM32L4xx_HAL_Driver/Src/stm32l4xx_hal_dac.c ****   * @brief  DeInitialize the DAC MSP.
 416:Drivers/STM32L4xx_HAL_Driver/Src/stm32l4xx_hal_dac.c ****   * @param  hdac: pointer to a DAC_HandleTypeDef structure that contains
 417:Drivers/STM32L4xx_HAL_Driver/Src/stm32l4xx_hal_dac.c ****   *         the configuration information for the specified DAC.  
 418:Drivers/STM32L4xx_HAL_Driver/Src/stm32l4xx_hal_dac.c ****   * @retval None
 419:Drivers/STM32L4xx_HAL_Driver/Src/stm32l4xx_hal_dac.c ****   */
 420:Drivers/STM32L4xx_HAL_Driver/Src/stm32l4xx_hal_dac.c **** __weak void HAL_DAC_MspDeInit(DAC_HandleTypeDef* hdac)
 421:Drivers/STM32L4xx_HAL_Driver/Src/stm32l4xx_hal_dac.c **** {
 109              		.loc 1 421 0
 110              		.cfi_startproc
 111              		@ args = 0, pretend = 0, frame = 0
 112              		@ frame_needed = 0, uses_anonymous_args = 0
 113              		@ link register save eliminated.
 114              	.LVL7:
 115 0000 7047     		bx	lr
 116              		.cfi_endproc
 117              	.LFE312:
 119              		.section	.text.HAL_DAC_DeInit,"ax",%progbits
 120              		.align	1
 121              		.global	HAL_DAC_DeInit
 122              		.syntax unified
 123              		.thumb
 124              		.thumb_func
 125              		.fpu fpv4-sp-d16
 127              	HAL_DAC_DeInit:
 128              	.LFB310:
 369:Drivers/STM32L4xx_HAL_Driver/Src/stm32l4xx_hal_dac.c ****   /* Check DAC handle */
 129              		.loc 1 369 0
 130              		.cfi_startproc
 131              		@ args = 0, pretend = 0, frame = 0
 132              		@ frame_needed = 0, uses_anonymous_args = 0
 133              	.LVL8:
 371:Drivers/STM32L4xx_HAL_Driver/Src/stm32l4xx_hal_dac.c ****   {
 134              		.loc 1 371 0
 135 0000 50B1     		cbz	r0, .L14
 369:Drivers/STM32L4xx_HAL_Driver/Src/stm32l4xx_hal_dac.c ****   /* Check DAC handle */
 136              		.loc 1 369 0
 137 0002 10B5     		push	{r4, lr}
 138              	.LCFI2:
 139              		.cfi_def_cfa_offset 8
 140              		.cfi_offset 4, -8
 141              		.cfi_offset 14, -4
 142 0004 0446     		mov	r4, r0
ARM GAS  /tmp/ccNW8x26.s 			page 11


 380:Drivers/STM32L4xx_HAL_Driver/Src/stm32l4xx_hal_dac.c **** 
 143              		.loc 1 380 0
 144 0006 0223     		movs	r3, #2
 145 0008 0371     		strb	r3, [r0, #4]
 383:Drivers/STM32L4xx_HAL_Driver/Src/stm32l4xx_hal_dac.c **** 
 146              		.loc 1 383 0
 147 000a FFF7FEFF 		bl	HAL_DAC_MspDeInit
 148              	.LVL9:
 386:Drivers/STM32L4xx_HAL_Driver/Src/stm32l4xx_hal_dac.c **** 
 149              		.loc 1 386 0
 150 000e 0020     		movs	r0, #0
 151 0010 2061     		str	r0, [r4, #16]
 389:Drivers/STM32L4xx_HAL_Driver/Src/stm32l4xx_hal_dac.c **** 
 152              		.loc 1 389 0
 153 0012 2071     		strb	r0, [r4, #4]
 392:Drivers/STM32L4xx_HAL_Driver/Src/stm32l4xx_hal_dac.c **** 
 154              		.loc 1 392 0
 155 0014 6071     		strb	r0, [r4, #5]
 395:Drivers/STM32L4xx_HAL_Driver/Src/stm32l4xx_hal_dac.c **** }
 156              		.loc 1 395 0
 157 0016 10BD     		pop	{r4, pc}
 158              	.LVL10:
 159              	.L14:
 160              	.LCFI3:
 161              		.cfi_def_cfa_offset 0
 162              		.cfi_restore 4
 163              		.cfi_restore 14
 373:Drivers/STM32L4xx_HAL_Driver/Src/stm32l4xx_hal_dac.c ****   }
 164              		.loc 1 373 0
 165 0018 0120     		movs	r0, #1
 166              	.LVL11:
 167 001a 7047     		bx	lr
 168              		.cfi_endproc
 169              	.LFE310:
 171              		.section	.text.HAL_DAC_Start,"ax",%progbits
 172              		.align	1
 173              		.global	HAL_DAC_Start
 174              		.syntax unified
 175              		.thumb
 176              		.thumb_func
 177              		.fpu fpv4-sp-d16
 179              	HAL_DAC_Start:
 180              	.LFB313:
 422:Drivers/STM32L4xx_HAL_Driver/Src/stm32l4xx_hal_dac.c ****   /* Prevent unused argument(s) compilation warning */
 423:Drivers/STM32L4xx_HAL_Driver/Src/stm32l4xx_hal_dac.c ****   UNUSED(hdac);
 424:Drivers/STM32L4xx_HAL_Driver/Src/stm32l4xx_hal_dac.c **** 
 425:Drivers/STM32L4xx_HAL_Driver/Src/stm32l4xx_hal_dac.c ****   /* NOTE : This function should not be modified, when the callback is needed,
 426:Drivers/STM32L4xx_HAL_Driver/Src/stm32l4xx_hal_dac.c ****             the HAL_DAC_MspDeInit could be implemented in the user file
 427:Drivers/STM32L4xx_HAL_Driver/Src/stm32l4xx_hal_dac.c ****    */ 
 428:Drivers/STM32L4xx_HAL_Driver/Src/stm32l4xx_hal_dac.c **** }
 429:Drivers/STM32L4xx_HAL_Driver/Src/stm32l4xx_hal_dac.c **** 
 430:Drivers/STM32L4xx_HAL_Driver/Src/stm32l4xx_hal_dac.c **** /**
 431:Drivers/STM32L4xx_HAL_Driver/Src/stm32l4xx_hal_dac.c ****   * @}
 432:Drivers/STM32L4xx_HAL_Driver/Src/stm32l4xx_hal_dac.c ****   */
 433:Drivers/STM32L4xx_HAL_Driver/Src/stm32l4xx_hal_dac.c **** 
 434:Drivers/STM32L4xx_HAL_Driver/Src/stm32l4xx_hal_dac.c **** /** @defgroup DAC_Exported_Functions_Group2 IO operation functions
 435:Drivers/STM32L4xx_HAL_Driver/Src/stm32l4xx_hal_dac.c ****  *  @brief    IO operation functions 
ARM GAS  /tmp/ccNW8x26.s 			page 12


 436:Drivers/STM32L4xx_HAL_Driver/Src/stm32l4xx_hal_dac.c ****  *
 437:Drivers/STM32L4xx_HAL_Driver/Src/stm32l4xx_hal_dac.c **** @verbatim   
 438:Drivers/STM32L4xx_HAL_Driver/Src/stm32l4xx_hal_dac.c ****   ==============================================================================
 439:Drivers/STM32L4xx_HAL_Driver/Src/stm32l4xx_hal_dac.c ****              ##### IO operation functions #####
 440:Drivers/STM32L4xx_HAL_Driver/Src/stm32l4xx_hal_dac.c ****   ==============================================================================  
 441:Drivers/STM32L4xx_HAL_Driver/Src/stm32l4xx_hal_dac.c ****     [..]  This section provides functions allowing to:
 442:Drivers/STM32L4xx_HAL_Driver/Src/stm32l4xx_hal_dac.c ****       (+) Start conversion.
 443:Drivers/STM32L4xx_HAL_Driver/Src/stm32l4xx_hal_dac.c ****       (+) Stop conversion.
 444:Drivers/STM32L4xx_HAL_Driver/Src/stm32l4xx_hal_dac.c ****       (+) Start conversion and enable DMA transfer.
 445:Drivers/STM32L4xx_HAL_Driver/Src/stm32l4xx_hal_dac.c ****       (+) Stop conversion and disable DMA transfer.
 446:Drivers/STM32L4xx_HAL_Driver/Src/stm32l4xx_hal_dac.c ****       (+) Get result of conversion.
 447:Drivers/STM32L4xx_HAL_Driver/Src/stm32l4xx_hal_dac.c ****                      
 448:Drivers/STM32L4xx_HAL_Driver/Src/stm32l4xx_hal_dac.c **** @endverbatim
 449:Drivers/STM32L4xx_HAL_Driver/Src/stm32l4xx_hal_dac.c ****   * @{
 450:Drivers/STM32L4xx_HAL_Driver/Src/stm32l4xx_hal_dac.c ****   */
 451:Drivers/STM32L4xx_HAL_Driver/Src/stm32l4xx_hal_dac.c **** 
 452:Drivers/STM32L4xx_HAL_Driver/Src/stm32l4xx_hal_dac.c **** /**
 453:Drivers/STM32L4xx_HAL_Driver/Src/stm32l4xx_hal_dac.c ****   * @brief  Enables DAC and starts conversion of channel.
 454:Drivers/STM32L4xx_HAL_Driver/Src/stm32l4xx_hal_dac.c ****   * @param  hdac: pointer to a DAC_HandleTypeDef structure that contains
 455:Drivers/STM32L4xx_HAL_Driver/Src/stm32l4xx_hal_dac.c ****   *         the configuration information for the specified DAC.
 456:Drivers/STM32L4xx_HAL_Driver/Src/stm32l4xx_hal_dac.c ****   * @param  Channel: The selected DAC channel. 
 457:Drivers/STM32L4xx_HAL_Driver/Src/stm32l4xx_hal_dac.c ****   *          This parameter can be one of the following values:
 458:Drivers/STM32L4xx_HAL_Driver/Src/stm32l4xx_hal_dac.c ****   *            @arg DAC_CHANNEL_1: DAC Channel1 selected
 459:Drivers/STM32L4xx_HAL_Driver/Src/stm32l4xx_hal_dac.c ****   *            @arg DAC_CHANNEL_2: DAC Channel2 selected (when supported)
 460:Drivers/STM32L4xx_HAL_Driver/Src/stm32l4xx_hal_dac.c ****   * @retval HAL status
 461:Drivers/STM32L4xx_HAL_Driver/Src/stm32l4xx_hal_dac.c ****   */
 462:Drivers/STM32L4xx_HAL_Driver/Src/stm32l4xx_hal_dac.c **** HAL_StatusTypeDef HAL_DAC_Start(DAC_HandleTypeDef* hdac, uint32_t Channel)
 463:Drivers/STM32L4xx_HAL_Driver/Src/stm32l4xx_hal_dac.c **** {
 181              		.loc 1 463 0
 182              		.cfi_startproc
 183              		@ args = 0, pretend = 0, frame = 0
 184              		@ frame_needed = 0, uses_anonymous_args = 0
 185              		@ link register save eliminated.
 186              	.LVL12:
 464:Drivers/STM32L4xx_HAL_Driver/Src/stm32l4xx_hal_dac.c ****   /* Check the parameters */
 465:Drivers/STM32L4xx_HAL_Driver/Src/stm32l4xx_hal_dac.c ****   assert_param(IS_DAC_CHANNEL(Channel));
 466:Drivers/STM32L4xx_HAL_Driver/Src/stm32l4xx_hal_dac.c ****   
 467:Drivers/STM32L4xx_HAL_Driver/Src/stm32l4xx_hal_dac.c ****   /* Process locked */
 468:Drivers/STM32L4xx_HAL_Driver/Src/stm32l4xx_hal_dac.c ****   __HAL_LOCK(hdac);
 187              		.loc 1 468 0
 188 0000 4379     		ldrb	r3, [r0, #5]	@ zero_extendqisi2
 189 0002 012B     		cmp	r3, #1
 190 0004 29D0     		beq	.L23
 463:Drivers/STM32L4xx_HAL_Driver/Src/stm32l4xx_hal_dac.c ****   /* Check the parameters */
 191              		.loc 1 463 0 discriminator 2
 192 0006 10B4     		push	{r4}
 193              	.LCFI4:
 194              		.cfi_def_cfa_offset 4
 195              		.cfi_offset 4, -4
 196              		.loc 1 468 0 discriminator 2
 197 0008 0123     		movs	r3, #1
 198 000a 4371     		strb	r3, [r0, #5]
 469:Drivers/STM32L4xx_HAL_Driver/Src/stm32l4xx_hal_dac.c ****   
 470:Drivers/STM32L4xx_HAL_Driver/Src/stm32l4xx_hal_dac.c ****   /* Change DAC state */
 471:Drivers/STM32L4xx_HAL_Driver/Src/stm32l4xx_hal_dac.c ****   hdac->State = HAL_DAC_STATE_BUSY;
 199              		.loc 1 471 0 discriminator 2
 200 000c 0222     		movs	r2, #2
ARM GAS  /tmp/ccNW8x26.s 			page 13


 201 000e 0271     		strb	r2, [r0, #4]
 472:Drivers/STM32L4xx_HAL_Driver/Src/stm32l4xx_hal_dac.c ****   
 473:Drivers/STM32L4xx_HAL_Driver/Src/stm32l4xx_hal_dac.c ****   /* Enable the Peripheral */
 474:Drivers/STM32L4xx_HAL_Driver/Src/stm32l4xx_hal_dac.c ****   __HAL_DAC_ENABLE(hdac, Channel);
 202              		.loc 1 474 0 discriminator 2
 203 0010 0468     		ldr	r4, [r0]
 204 0012 2268     		ldr	r2, [r4]
 205 0014 8B40     		lsls	r3, r3, r1
 206 0016 1343     		orrs	r3, r3, r2
 207 0018 2360     		str	r3, [r4]
 475:Drivers/STM32L4xx_HAL_Driver/Src/stm32l4xx_hal_dac.c **** 
 476:Drivers/STM32L4xx_HAL_Driver/Src/stm32l4xx_hal_dac.c **** #if defined (STM32L4R5xx) || defined (STM32L4R7xx) || defined (STM32L4R9xx) || defined (STM32L4S5xx
 477:Drivers/STM32L4xx_HAL_Driver/Src/stm32l4xx_hal_dac.c ****   if(Channel == DAC_CHANNEL_1)
 478:Drivers/STM32L4xx_HAL_Driver/Src/stm32l4xx_hal_dac.c ****   {
 479:Drivers/STM32L4xx_HAL_Driver/Src/stm32l4xx_hal_dac.c ****     /* Check if software trigger enabled */
 480:Drivers/STM32L4xx_HAL_Driver/Src/stm32l4xx_hal_dac.c ****     if(((DAC_CR_TEN1 & ~(DAC_CR_TSEL1)) == (hdac->Instance->CR & (DAC_CR_TEN1 | DAC_CR_TSEL1))))
 481:Drivers/STM32L4xx_HAL_Driver/Src/stm32l4xx_hal_dac.c ****     {
 482:Drivers/STM32L4xx_HAL_Driver/Src/stm32l4xx_hal_dac.c ****       /* Enable the selected DAC software conversion */
 483:Drivers/STM32L4xx_HAL_Driver/Src/stm32l4xx_hal_dac.c ****       SET_BIT(hdac->Instance->SWTRIGR, DAC_SWTRIGR_SWTRIG1);
 484:Drivers/STM32L4xx_HAL_Driver/Src/stm32l4xx_hal_dac.c ****     }
 485:Drivers/STM32L4xx_HAL_Driver/Src/stm32l4xx_hal_dac.c ****   }
 486:Drivers/STM32L4xx_HAL_Driver/Src/stm32l4xx_hal_dac.c ****   else
 487:Drivers/STM32L4xx_HAL_Driver/Src/stm32l4xx_hal_dac.c ****   {
 488:Drivers/STM32L4xx_HAL_Driver/Src/stm32l4xx_hal_dac.c ****     /* Check if software trigger enabled */
 489:Drivers/STM32L4xx_HAL_Driver/Src/stm32l4xx_hal_dac.c ****     if(((DAC_CR_TEN2 & ~(DAC_CR_TSEL2)) == (hdac->Instance->CR & (DAC_CR_TEN2 | DAC_CR_TSEL2))))
 490:Drivers/STM32L4xx_HAL_Driver/Src/stm32l4xx_hal_dac.c ****     {
 491:Drivers/STM32L4xx_HAL_Driver/Src/stm32l4xx_hal_dac.c ****       /* Enable the selected DAC software conversion*/
 492:Drivers/STM32L4xx_HAL_Driver/Src/stm32l4xx_hal_dac.c ****       SET_BIT(hdac->Instance->SWTRIGR, DAC_SWTRIGR_SWTRIG2);
 493:Drivers/STM32L4xx_HAL_Driver/Src/stm32l4xx_hal_dac.c ****     }
 494:Drivers/STM32L4xx_HAL_Driver/Src/stm32l4xx_hal_dac.c ****   }
 495:Drivers/STM32L4xx_HAL_Driver/Src/stm32l4xx_hal_dac.c **** 
 496:Drivers/STM32L4xx_HAL_Driver/Src/stm32l4xx_hal_dac.c **** #endif /* STM32L4R5xx STM32L4R7xx STM32L4R9xx STM32L4S5xx STM32L4S7xx STM32L4S9xx                  
 497:Drivers/STM32L4xx_HAL_Driver/Src/stm32l4xx_hal_dac.c **** 
 498:Drivers/STM32L4xx_HAL_Driver/Src/stm32l4xx_hal_dac.c **** #if defined (STM32L431xx) || defined (STM32L432xx) || defined (STM32L433xx) || defined (STM32L442xx
 499:Drivers/STM32L4xx_HAL_Driver/Src/stm32l4xx_hal_dac.c ****     defined (STM32L471xx) || defined (STM32L475xx) || defined (STM32L476xx) || defined (STM32L485xx
 500:Drivers/STM32L4xx_HAL_Driver/Src/stm32l4xx_hal_dac.c ****   if(Channel == DAC_CHANNEL_1)
 208              		.loc 1 500 0 discriminator 2
 209 001a 91B9     		cbnz	r1, .L21
 501:Drivers/STM32L4xx_HAL_Driver/Src/stm32l4xx_hal_dac.c ****   {
 502:Drivers/STM32L4xx_HAL_Driver/Src/stm32l4xx_hal_dac.c ****     /* Check if software trigger enabled */
 503:Drivers/STM32L4xx_HAL_Driver/Src/stm32l4xx_hal_dac.c ****     if((hdac->Instance->CR & (DAC_CR_TEN1 | DAC_CR_TSEL1)) == (DAC_CR_TEN1 | DAC_CR_TSEL1))
 210              		.loc 1 503 0
 211 001c 0268     		ldr	r2, [r0]
 212 001e 1368     		ldr	r3, [r2]
 213 0020 03F03C03 		and	r3, r3, #60
 214 0024 3C2B     		cmp	r3, #60
 215 0026 07D0     		beq	.L28
 216              	.L22:
 504:Drivers/STM32L4xx_HAL_Driver/Src/stm32l4xx_hal_dac.c ****     {
 505:Drivers/STM32L4xx_HAL_Driver/Src/stm32l4xx_hal_dac.c ****       /* Enable the selected DAC software conversion */
 506:Drivers/STM32L4xx_HAL_Driver/Src/stm32l4xx_hal_dac.c ****       SET_BIT(hdac->Instance->SWTRIGR, DAC_SWTRIGR_SWTRIG1);
 507:Drivers/STM32L4xx_HAL_Driver/Src/stm32l4xx_hal_dac.c ****     }
 508:Drivers/STM32L4xx_HAL_Driver/Src/stm32l4xx_hal_dac.c ****   }
 509:Drivers/STM32L4xx_HAL_Driver/Src/stm32l4xx_hal_dac.c ****   else
 510:Drivers/STM32L4xx_HAL_Driver/Src/stm32l4xx_hal_dac.c ****   {
 511:Drivers/STM32L4xx_HAL_Driver/Src/stm32l4xx_hal_dac.c ****     /* Check if software trigger enabled */
 512:Drivers/STM32L4xx_HAL_Driver/Src/stm32l4xx_hal_dac.c ****     if((hdac->Instance->CR & (DAC_CR_TEN2 | DAC_CR_TSEL2)) == (DAC_CR_TEN2 | DAC_CR_TSEL2))
ARM GAS  /tmp/ccNW8x26.s 			page 14


 513:Drivers/STM32L4xx_HAL_Driver/Src/stm32l4xx_hal_dac.c ****     {
 514:Drivers/STM32L4xx_HAL_Driver/Src/stm32l4xx_hal_dac.c ****       /* Enable the selected DAC software conversion*/
 515:Drivers/STM32L4xx_HAL_Driver/Src/stm32l4xx_hal_dac.c ****       SET_BIT(hdac->Instance->SWTRIGR, DAC_SWTRIGR_SWTRIG2);
 516:Drivers/STM32L4xx_HAL_Driver/Src/stm32l4xx_hal_dac.c ****     }
 517:Drivers/STM32L4xx_HAL_Driver/Src/stm32l4xx_hal_dac.c ****   }
 518:Drivers/STM32L4xx_HAL_Driver/Src/stm32l4xx_hal_dac.c **** #endif  /* STM32L431xx STM32L432xx STM32L433xx STM32L442xx STM32L443xx                         */  
 519:Drivers/STM32L4xx_HAL_Driver/Src/stm32l4xx_hal_dac.c ****         /* STM32L471xx STM32L475xx STM32L476xx STM32L485xx STM32L486xx STM32L496xx STM32L4A6xx */ 
 520:Drivers/STM32L4xx_HAL_Driver/Src/stm32l4xx_hal_dac.c ****         
 521:Drivers/STM32L4xx_HAL_Driver/Src/stm32l4xx_hal_dac.c **** 
 522:Drivers/STM32L4xx_HAL_Driver/Src/stm32l4xx_hal_dac.c **** #if defined (STM32L451xx) || defined (STM32L452xx) || defined (STM32L462xx)
 523:Drivers/STM32L4xx_HAL_Driver/Src/stm32l4xx_hal_dac.c ****   /* Check if software trigger enabled */
 524:Drivers/STM32L4xx_HAL_Driver/Src/stm32l4xx_hal_dac.c ****   if((hdac->Instance->CR & (DAC_CR_TEN1 | DAC_CR_TSEL1)) == (DAC_CR_TEN1 | DAC_CR_TSEL1))
 525:Drivers/STM32L4xx_HAL_Driver/Src/stm32l4xx_hal_dac.c ****   {
 526:Drivers/STM32L4xx_HAL_Driver/Src/stm32l4xx_hal_dac.c ****     /* Enable the selected DAC software conversion */
 527:Drivers/STM32L4xx_HAL_Driver/Src/stm32l4xx_hal_dac.c ****     SET_BIT(hdac->Instance->SWTRIGR, DAC_SWTRIGR_SWTRIG1);
 528:Drivers/STM32L4xx_HAL_Driver/Src/stm32l4xx_hal_dac.c ****   }
 529:Drivers/STM32L4xx_HAL_Driver/Src/stm32l4xx_hal_dac.c **** #endif /* STM32L451xx STM32L452xx STM32L462xx */
 530:Drivers/STM32L4xx_HAL_Driver/Src/stm32l4xx_hal_dac.c ****   /* Change DAC state */
 531:Drivers/STM32L4xx_HAL_Driver/Src/stm32l4xx_hal_dac.c ****   hdac->State = HAL_DAC_STATE_READY;
 217              		.loc 1 531 0
 218 0028 0123     		movs	r3, #1
 219 002a 0371     		strb	r3, [r0, #4]
 532:Drivers/STM32L4xx_HAL_Driver/Src/stm32l4xx_hal_dac.c ****   
 533:Drivers/STM32L4xx_HAL_Driver/Src/stm32l4xx_hal_dac.c ****   /* Process unlocked */
 534:Drivers/STM32L4xx_HAL_Driver/Src/stm32l4xx_hal_dac.c ****   __HAL_UNLOCK(hdac);
 220              		.loc 1 534 0
 221 002c 0023     		movs	r3, #0
 222 002e 4371     		strb	r3, [r0, #5]
 535:Drivers/STM32L4xx_HAL_Driver/Src/stm32l4xx_hal_dac.c ****     
 536:Drivers/STM32L4xx_HAL_Driver/Src/stm32l4xx_hal_dac.c ****   /* Return function status */
 537:Drivers/STM32L4xx_HAL_Driver/Src/stm32l4xx_hal_dac.c ****   return HAL_OK;
 223              		.loc 1 537 0
 224 0030 1846     		mov	r0, r3
 225              	.LVL13:
 538:Drivers/STM32L4xx_HAL_Driver/Src/stm32l4xx_hal_dac.c **** }
 226              		.loc 1 538 0
 227 0032 5DF8044B 		ldr	r4, [sp], #4
 228              	.LCFI5:
 229              		.cfi_remember_state
 230              		.cfi_restore 4
 231              		.cfi_def_cfa_offset 0
 232 0036 7047     		bx	lr
 233              	.LVL14:
 234              	.L28:
 235              	.LCFI6:
 236              		.cfi_restore_state
 506:Drivers/STM32L4xx_HAL_Driver/Src/stm32l4xx_hal_dac.c ****     }
 237              		.loc 1 506 0
 238 0038 5368     		ldr	r3, [r2, #4]
 239 003a 43F00103 		orr	r3, r3, #1
 240 003e 5360     		str	r3, [r2, #4]
 241 0040 F2E7     		b	.L22
 242              	.L21:
 512:Drivers/STM32L4xx_HAL_Driver/Src/stm32l4xx_hal_dac.c ****     {
 243              		.loc 1 512 0
 244 0042 0268     		ldr	r2, [r0]
 245 0044 1368     		ldr	r3, [r2]
ARM GAS  /tmp/ccNW8x26.s 			page 15


 246 0046 03F47013 		and	r3, r3, #3932160
 247 004a B3F5701F 		cmp	r3, #3932160
 248 004e EBD1     		bne	.L22
 515:Drivers/STM32L4xx_HAL_Driver/Src/stm32l4xx_hal_dac.c ****     }
 249              		.loc 1 515 0
 250 0050 5368     		ldr	r3, [r2, #4]
 251 0052 43F00203 		orr	r3, r3, #2
 252 0056 5360     		str	r3, [r2, #4]
 253 0058 E6E7     		b	.L22
 254              	.L23:
 255              	.LCFI7:
 256              		.cfi_def_cfa_offset 0
 257              		.cfi_restore 4
 468:Drivers/STM32L4xx_HAL_Driver/Src/stm32l4xx_hal_dac.c ****   
 258              		.loc 1 468 0
 259 005a 0220     		movs	r0, #2
 260              	.LVL15:
 261 005c 7047     		bx	lr
 262              		.cfi_endproc
 263              	.LFE313:
 265              		.section	.text.HAL_DAC_Stop,"ax",%progbits
 266              		.align	1
 267              		.global	HAL_DAC_Stop
 268              		.syntax unified
 269              		.thumb
 270              		.thumb_func
 271              		.fpu fpv4-sp-d16
 273              	HAL_DAC_Stop:
 274              	.LFB314:
 539:Drivers/STM32L4xx_HAL_Driver/Src/stm32l4xx_hal_dac.c ****   
 540:Drivers/STM32L4xx_HAL_Driver/Src/stm32l4xx_hal_dac.c **** /**
 541:Drivers/STM32L4xx_HAL_Driver/Src/stm32l4xx_hal_dac.c ****   * @brief  Disables DAC and stop conversion of channel.
 542:Drivers/STM32L4xx_HAL_Driver/Src/stm32l4xx_hal_dac.c ****   * @param  hdac: pointer to a DAC_HandleTypeDef structure that contains
 543:Drivers/STM32L4xx_HAL_Driver/Src/stm32l4xx_hal_dac.c ****   *         the configuration information for the specified DAC.
 544:Drivers/STM32L4xx_HAL_Driver/Src/stm32l4xx_hal_dac.c ****   * @param  Channel: The selected DAC channel. 
 545:Drivers/STM32L4xx_HAL_Driver/Src/stm32l4xx_hal_dac.c ****   *          This parameter can be one of the following values:
 546:Drivers/STM32L4xx_HAL_Driver/Src/stm32l4xx_hal_dac.c ****   *            @arg DAC_CHANNEL_1: DAC Channel1 selected
 547:Drivers/STM32L4xx_HAL_Driver/Src/stm32l4xx_hal_dac.c ****   *            @arg DAC_CHANNEL_2: DAC Channel2 selected  
 548:Drivers/STM32L4xx_HAL_Driver/Src/stm32l4xx_hal_dac.c ****   * @retval HAL status
 549:Drivers/STM32L4xx_HAL_Driver/Src/stm32l4xx_hal_dac.c ****   */
 550:Drivers/STM32L4xx_HAL_Driver/Src/stm32l4xx_hal_dac.c **** HAL_StatusTypeDef HAL_DAC_Stop(DAC_HandleTypeDef* hdac, uint32_t Channel)
 551:Drivers/STM32L4xx_HAL_Driver/Src/stm32l4xx_hal_dac.c **** {
 275              		.loc 1 551 0
 276              		.cfi_startproc
 277              		@ args = 0, pretend = 0, frame = 0
 278              		@ frame_needed = 0, uses_anonymous_args = 0
 279              		@ link register save eliminated.
 280              	.LVL16:
 281 0000 10B4     		push	{r4}
 282              	.LCFI8:
 283              		.cfi_def_cfa_offset 4
 284              		.cfi_offset 4, -4
 552:Drivers/STM32L4xx_HAL_Driver/Src/stm32l4xx_hal_dac.c ****   /* Check the parameters */
 553:Drivers/STM32L4xx_HAL_Driver/Src/stm32l4xx_hal_dac.c ****   assert_param(IS_DAC_CHANNEL(Channel));
 554:Drivers/STM32L4xx_HAL_Driver/Src/stm32l4xx_hal_dac.c ****   
 555:Drivers/STM32L4xx_HAL_Driver/Src/stm32l4xx_hal_dac.c ****   /* Disable the Peripheral */
 556:Drivers/STM32L4xx_HAL_Driver/Src/stm32l4xx_hal_dac.c ****   __HAL_DAC_DISABLE(hdac, Channel);
ARM GAS  /tmp/ccNW8x26.s 			page 16


 285              		.loc 1 556 0
 286 0002 0468     		ldr	r4, [r0]
 287 0004 2368     		ldr	r3, [r4]
 288 0006 0122     		movs	r2, #1
 289 0008 02FA01F1 		lsl	r1, r2, r1
 290              	.LVL17:
 291 000c 23EA0103 		bic	r3, r3, r1
 292 0010 2360     		str	r3, [r4]
 557:Drivers/STM32L4xx_HAL_Driver/Src/stm32l4xx_hal_dac.c ****   
 558:Drivers/STM32L4xx_HAL_Driver/Src/stm32l4xx_hal_dac.c ****   /* Change DAC state */
 559:Drivers/STM32L4xx_HAL_Driver/Src/stm32l4xx_hal_dac.c ****   hdac->State = HAL_DAC_STATE_READY;
 293              		.loc 1 559 0
 294 0012 0271     		strb	r2, [r0, #4]
 560:Drivers/STM32L4xx_HAL_Driver/Src/stm32l4xx_hal_dac.c ****   
 561:Drivers/STM32L4xx_HAL_Driver/Src/stm32l4xx_hal_dac.c ****   /* Return function status */
 562:Drivers/STM32L4xx_HAL_Driver/Src/stm32l4xx_hal_dac.c ****   return HAL_OK;
 563:Drivers/STM32L4xx_HAL_Driver/Src/stm32l4xx_hal_dac.c **** }
 295              		.loc 1 563 0
 296 0014 0020     		movs	r0, #0
 297              	.LVL18:
 298 0016 5DF8044B 		ldr	r4, [sp], #4
 299              	.LCFI9:
 300              		.cfi_restore 4
 301              		.cfi_def_cfa_offset 0
 302 001a 7047     		bx	lr
 303              		.cfi_endproc
 304              	.LFE314:
 306              		.section	.text.HAL_DAC_Start_DMA,"ax",%progbits
 307              		.align	1
 308              		.global	HAL_DAC_Start_DMA
 309              		.syntax unified
 310              		.thumb
 311              		.thumb_func
 312              		.fpu fpv4-sp-d16
 314              	HAL_DAC_Start_DMA:
 315              	.LFB315:
 564:Drivers/STM32L4xx_HAL_Driver/Src/stm32l4xx_hal_dac.c **** 
 565:Drivers/STM32L4xx_HAL_Driver/Src/stm32l4xx_hal_dac.c **** #if defined (STM32L451xx) || defined (STM32L452xx) || defined (STM32L462xx) 
 566:Drivers/STM32L4xx_HAL_Driver/Src/stm32l4xx_hal_dac.c **** /**
 567:Drivers/STM32L4xx_HAL_Driver/Src/stm32l4xx_hal_dac.c ****   * @brief  Enables DAC and starts conversion of channel.
 568:Drivers/STM32L4xx_HAL_Driver/Src/stm32l4xx_hal_dac.c ****   * @param  hdac: pointer to a DAC_HandleTypeDef structure that contains
 569:Drivers/STM32L4xx_HAL_Driver/Src/stm32l4xx_hal_dac.c ****   *         the configuration information for the specified DAC.
 570:Drivers/STM32L4xx_HAL_Driver/Src/stm32l4xx_hal_dac.c ****   * @param  Channel: The selected DAC channel. 
 571:Drivers/STM32L4xx_HAL_Driver/Src/stm32l4xx_hal_dac.c ****   *          This parameter can be one of the following values:
 572:Drivers/STM32L4xx_HAL_Driver/Src/stm32l4xx_hal_dac.c ****   *            @arg DAC_CHANNEL_1: DAC Channel1 selected
 573:Drivers/STM32L4xx_HAL_Driver/Src/stm32l4xx_hal_dac.c ****   * @param  pData: The destination peripheral Buffer address.
 574:Drivers/STM32L4xx_HAL_Driver/Src/stm32l4xx_hal_dac.c ****   * @param  Length: The length of data to be transferred from memory to DAC peripheral
 575:Drivers/STM32L4xx_HAL_Driver/Src/stm32l4xx_hal_dac.c ****   * @param  Alignment: Specifies the data alignment for DAC channel.
 576:Drivers/STM32L4xx_HAL_Driver/Src/stm32l4xx_hal_dac.c ****   *          This parameter can be one of the following values:
 577:Drivers/STM32L4xx_HAL_Driver/Src/stm32l4xx_hal_dac.c ****   *            @arg DAC_ALIGN_8B_R: 8bit right data alignment selected
 578:Drivers/STM32L4xx_HAL_Driver/Src/stm32l4xx_hal_dac.c ****   *            @arg DAC_ALIGN_12B_L: 12bit left data alignment selected
 579:Drivers/STM32L4xx_HAL_Driver/Src/stm32l4xx_hal_dac.c ****   *            @arg DAC_ALIGN_12B_R: 12bit right data alignment selected
 580:Drivers/STM32L4xx_HAL_Driver/Src/stm32l4xx_hal_dac.c ****   * @retval HAL status
 581:Drivers/STM32L4xx_HAL_Driver/Src/stm32l4xx_hal_dac.c ****   */
 582:Drivers/STM32L4xx_HAL_Driver/Src/stm32l4xx_hal_dac.c **** HAL_StatusTypeDef HAL_DAC_Start_DMA(DAC_HandleTypeDef* hdac, uint32_t Channel, uint32_t* pData, uin
 583:Drivers/STM32L4xx_HAL_Driver/Src/stm32l4xx_hal_dac.c **** {
 584:Drivers/STM32L4xx_HAL_Driver/Src/stm32l4xx_hal_dac.c ****   uint32_t tmpreg = 0;
ARM GAS  /tmp/ccNW8x26.s 			page 17


 585:Drivers/STM32L4xx_HAL_Driver/Src/stm32l4xx_hal_dac.c ****     
 586:Drivers/STM32L4xx_HAL_Driver/Src/stm32l4xx_hal_dac.c ****   /* Check the parameters */
 587:Drivers/STM32L4xx_HAL_Driver/Src/stm32l4xx_hal_dac.c ****   assert_param(IS_DAC_CHANNEL(Channel));
 588:Drivers/STM32L4xx_HAL_Driver/Src/stm32l4xx_hal_dac.c ****   assert_param(IS_DAC_ALIGN(Alignment));
 589:Drivers/STM32L4xx_HAL_Driver/Src/stm32l4xx_hal_dac.c ****   
 590:Drivers/STM32L4xx_HAL_Driver/Src/stm32l4xx_hal_dac.c ****   /* Process locked */
 591:Drivers/STM32L4xx_HAL_Driver/Src/stm32l4xx_hal_dac.c ****   __HAL_LOCK(hdac);
 592:Drivers/STM32L4xx_HAL_Driver/Src/stm32l4xx_hal_dac.c ****   
 593:Drivers/STM32L4xx_HAL_Driver/Src/stm32l4xx_hal_dac.c ****   /* Change DAC state */
 594:Drivers/STM32L4xx_HAL_Driver/Src/stm32l4xx_hal_dac.c ****   hdac->State = HAL_DAC_STATE_BUSY;
 595:Drivers/STM32L4xx_HAL_Driver/Src/stm32l4xx_hal_dac.c ****   
 596:Drivers/STM32L4xx_HAL_Driver/Src/stm32l4xx_hal_dac.c ****   /* Set the DMA transfer complete callback for channel1 */
 597:Drivers/STM32L4xx_HAL_Driver/Src/stm32l4xx_hal_dac.c ****   hdac->DMA_Handle1->XferCpltCallback = DAC_DMAConvCpltCh1;
 598:Drivers/STM32L4xx_HAL_Driver/Src/stm32l4xx_hal_dac.c ****   
 599:Drivers/STM32L4xx_HAL_Driver/Src/stm32l4xx_hal_dac.c ****   /* Set the DMA half transfer complete callback for channel1 */
 600:Drivers/STM32L4xx_HAL_Driver/Src/stm32l4xx_hal_dac.c ****   hdac->DMA_Handle1->XferHalfCpltCallback = DAC_DMAHalfConvCpltCh1;
 601:Drivers/STM32L4xx_HAL_Driver/Src/stm32l4xx_hal_dac.c ****      
 602:Drivers/STM32L4xx_HAL_Driver/Src/stm32l4xx_hal_dac.c ****   /* Set the DMA error callback for channel1 */
 603:Drivers/STM32L4xx_HAL_Driver/Src/stm32l4xx_hal_dac.c ****   hdac->DMA_Handle1->XferErrorCallback = DAC_DMAErrorCh1;
 604:Drivers/STM32L4xx_HAL_Driver/Src/stm32l4xx_hal_dac.c ****   
 605:Drivers/STM32L4xx_HAL_Driver/Src/stm32l4xx_hal_dac.c ****   /* Enable the selected DAC channel1 DMA request */
 606:Drivers/STM32L4xx_HAL_Driver/Src/stm32l4xx_hal_dac.c ****   SET_BIT(hdac->Instance->CR, DAC_CR_DMAEN1);
 607:Drivers/STM32L4xx_HAL_Driver/Src/stm32l4xx_hal_dac.c ****   
 608:Drivers/STM32L4xx_HAL_Driver/Src/stm32l4xx_hal_dac.c ****   /* Case of use of channel 1 */
 609:Drivers/STM32L4xx_HAL_Driver/Src/stm32l4xx_hal_dac.c ****   switch(Alignment)
 610:Drivers/STM32L4xx_HAL_Driver/Src/stm32l4xx_hal_dac.c ****   {
 611:Drivers/STM32L4xx_HAL_Driver/Src/stm32l4xx_hal_dac.c ****     case DAC_ALIGN_12B_R:
 612:Drivers/STM32L4xx_HAL_Driver/Src/stm32l4xx_hal_dac.c ****       /* Get DHR12R1 address */
 613:Drivers/STM32L4xx_HAL_Driver/Src/stm32l4xx_hal_dac.c ****       tmpreg = (uint32_t)&hdac->Instance->DHR12R1;
 614:Drivers/STM32L4xx_HAL_Driver/Src/stm32l4xx_hal_dac.c ****       break;
 615:Drivers/STM32L4xx_HAL_Driver/Src/stm32l4xx_hal_dac.c ****     case DAC_ALIGN_12B_L:
 616:Drivers/STM32L4xx_HAL_Driver/Src/stm32l4xx_hal_dac.c ****       /* Get DHR12L1 address */
 617:Drivers/STM32L4xx_HAL_Driver/Src/stm32l4xx_hal_dac.c ****       tmpreg = (uint32_t)&hdac->Instance->DHR12L1;
 618:Drivers/STM32L4xx_HAL_Driver/Src/stm32l4xx_hal_dac.c ****       break;
 619:Drivers/STM32L4xx_HAL_Driver/Src/stm32l4xx_hal_dac.c ****     case DAC_ALIGN_8B_R:
 620:Drivers/STM32L4xx_HAL_Driver/Src/stm32l4xx_hal_dac.c ****       /* Get DHR8R1 address */
 621:Drivers/STM32L4xx_HAL_Driver/Src/stm32l4xx_hal_dac.c ****       tmpreg = (uint32_t)&hdac->Instance->DHR8R1;
 622:Drivers/STM32L4xx_HAL_Driver/Src/stm32l4xx_hal_dac.c ****       break;
 623:Drivers/STM32L4xx_HAL_Driver/Src/stm32l4xx_hal_dac.c ****     default:
 624:Drivers/STM32L4xx_HAL_Driver/Src/stm32l4xx_hal_dac.c ****       break;
 625:Drivers/STM32L4xx_HAL_Driver/Src/stm32l4xx_hal_dac.c ****   }  
 626:Drivers/STM32L4xx_HAL_Driver/Src/stm32l4xx_hal_dac.c ****   
 627:Drivers/STM32L4xx_HAL_Driver/Src/stm32l4xx_hal_dac.c ****   /* Enable the DMA channel */
 628:Drivers/STM32L4xx_HAL_Driver/Src/stm32l4xx_hal_dac.c ****   /* Enable the DAC DMA underrun interrupt */
 629:Drivers/STM32L4xx_HAL_Driver/Src/stm32l4xx_hal_dac.c ****   __HAL_DAC_ENABLE_IT(hdac, DAC_IT_DMAUDR1);
 630:Drivers/STM32L4xx_HAL_Driver/Src/stm32l4xx_hal_dac.c ****     
 631:Drivers/STM32L4xx_HAL_Driver/Src/stm32l4xx_hal_dac.c ****   /* Enable the DMA channel */
 632:Drivers/STM32L4xx_HAL_Driver/Src/stm32l4xx_hal_dac.c ****   HAL_DMA_Start_IT(hdac->DMA_Handle1, (uint32_t)pData, tmpreg, Length);
 633:Drivers/STM32L4xx_HAL_Driver/Src/stm32l4xx_hal_dac.c ****   
 634:Drivers/STM32L4xx_HAL_Driver/Src/stm32l4xx_hal_dac.c ****   /* Process Unlocked */
 635:Drivers/STM32L4xx_HAL_Driver/Src/stm32l4xx_hal_dac.c ****   __HAL_UNLOCK(hdac);
 636:Drivers/STM32L4xx_HAL_Driver/Src/stm32l4xx_hal_dac.c **** 
 637:Drivers/STM32L4xx_HAL_Driver/Src/stm32l4xx_hal_dac.c ****   /* Enable the Peripheral */
 638:Drivers/STM32L4xx_HAL_Driver/Src/stm32l4xx_hal_dac.c ****   __HAL_DAC_ENABLE(hdac, Channel);
 639:Drivers/STM32L4xx_HAL_Driver/Src/stm32l4xx_hal_dac.c ****   
 640:Drivers/STM32L4xx_HAL_Driver/Src/stm32l4xx_hal_dac.c ****   /* Return function status */
 641:Drivers/STM32L4xx_HAL_Driver/Src/stm32l4xx_hal_dac.c ****   return HAL_OK;
ARM GAS  /tmp/ccNW8x26.s 			page 18


 642:Drivers/STM32L4xx_HAL_Driver/Src/stm32l4xx_hal_dac.c **** }
 643:Drivers/STM32L4xx_HAL_Driver/Src/stm32l4xx_hal_dac.c **** #endif /* STM32L451xx STM32L452xx STM32L462xx */   
 644:Drivers/STM32L4xx_HAL_Driver/Src/stm32l4xx_hal_dac.c **** 
 645:Drivers/STM32L4xx_HAL_Driver/Src/stm32l4xx_hal_dac.c **** #if defined (STM32L431xx) || defined (STM32L432xx) || defined (STM32L433xx) || defined (STM32L442xx
 646:Drivers/STM32L4xx_HAL_Driver/Src/stm32l4xx_hal_dac.c ****     defined (STM32L471xx) || defined (STM32L475xx) || defined (STM32L476xx) || defined (STM32L485xx
 647:Drivers/STM32L4xx_HAL_Driver/Src/stm32l4xx_hal_dac.c ****     defined (STM32L4R5xx) || defined (STM32L4R7xx) || defined (STM32L4R9xx) || defined (STM32L4S5xx
 648:Drivers/STM32L4xx_HAL_Driver/Src/stm32l4xx_hal_dac.c ****       
 649:Drivers/STM32L4xx_HAL_Driver/Src/stm32l4xx_hal_dac.c **** /**
 650:Drivers/STM32L4xx_HAL_Driver/Src/stm32l4xx_hal_dac.c ****   * @brief  Enables DAC and starts conversion of channel.
 651:Drivers/STM32L4xx_HAL_Driver/Src/stm32l4xx_hal_dac.c ****   * @param  hdac: pointer to a DAC_HandleTypeDef structure that contains
 652:Drivers/STM32L4xx_HAL_Driver/Src/stm32l4xx_hal_dac.c ****   *         the configuration information for the specified DAC.
 653:Drivers/STM32L4xx_HAL_Driver/Src/stm32l4xx_hal_dac.c ****   * @param  Channel: The selected DAC channel. 
 654:Drivers/STM32L4xx_HAL_Driver/Src/stm32l4xx_hal_dac.c ****   *          This parameter can be one of the following values:
 655:Drivers/STM32L4xx_HAL_Driver/Src/stm32l4xx_hal_dac.c ****   *            @arg DAC_CHANNEL_1: DAC Channel1 selected
 656:Drivers/STM32L4xx_HAL_Driver/Src/stm32l4xx_hal_dac.c ****   *            @arg DAC_CHANNEL_2: DAC Channel2 selected
 657:Drivers/STM32L4xx_HAL_Driver/Src/stm32l4xx_hal_dac.c ****   * @param  pData: The destination peripheral Buffer address.
 658:Drivers/STM32L4xx_HAL_Driver/Src/stm32l4xx_hal_dac.c ****   * @param  Length: The length of data to be transferred from memory to DAC peripheral
 659:Drivers/STM32L4xx_HAL_Driver/Src/stm32l4xx_hal_dac.c ****   * @param  Alignment: Specifies the data alignment for DAC channel.
 660:Drivers/STM32L4xx_HAL_Driver/Src/stm32l4xx_hal_dac.c ****   *          This parameter can be one of the following values:
 661:Drivers/STM32L4xx_HAL_Driver/Src/stm32l4xx_hal_dac.c ****   *            @arg DAC_ALIGN_8B_R: 8bit right data alignment selected
 662:Drivers/STM32L4xx_HAL_Driver/Src/stm32l4xx_hal_dac.c ****   *            @arg DAC_ALIGN_12B_L: 12bit left data alignment selected
 663:Drivers/STM32L4xx_HAL_Driver/Src/stm32l4xx_hal_dac.c ****   *            @arg DAC_ALIGN_12B_R: 12bit right data alignment selected
 664:Drivers/STM32L4xx_HAL_Driver/Src/stm32l4xx_hal_dac.c ****   * @retval HAL status
 665:Drivers/STM32L4xx_HAL_Driver/Src/stm32l4xx_hal_dac.c ****   */
 666:Drivers/STM32L4xx_HAL_Driver/Src/stm32l4xx_hal_dac.c **** HAL_StatusTypeDef HAL_DAC_Start_DMA(DAC_HandleTypeDef* hdac, uint32_t Channel, uint32_t* pData, uin
 667:Drivers/STM32L4xx_HAL_Driver/Src/stm32l4xx_hal_dac.c **** {
 316              		.loc 1 667 0
 317              		.cfi_startproc
 318              		@ args = 4, pretend = 0, frame = 0
 319              		@ frame_needed = 0, uses_anonymous_args = 0
 320              	.LVL19:
 321 0000 F8B5     		push	{r3, r4, r5, r6, r7, lr}
 322              	.LCFI10:
 323              		.cfi_def_cfa_offset 24
 324              		.cfi_offset 3, -24
 325              		.cfi_offset 4, -20
 326              		.cfi_offset 5, -16
 327              		.cfi_offset 6, -12
 328              		.cfi_offset 7, -8
 329              		.cfi_offset 14, -4
 330 0002 069E     		ldr	r6, [sp, #24]
 331              	.LVL20:
 668:Drivers/STM32L4xx_HAL_Driver/Src/stm32l4xx_hal_dac.c ****   uint32_t tmpreg = 0;
 669:Drivers/STM32L4xx_HAL_Driver/Src/stm32l4xx_hal_dac.c ****     
 670:Drivers/STM32L4xx_HAL_Driver/Src/stm32l4xx_hal_dac.c ****   /* Check the parameters */
 671:Drivers/STM32L4xx_HAL_Driver/Src/stm32l4xx_hal_dac.c ****   assert_param(IS_DAC_CHANNEL(Channel));
 672:Drivers/STM32L4xx_HAL_Driver/Src/stm32l4xx_hal_dac.c ****   assert_param(IS_DAC_ALIGN(Alignment));
 673:Drivers/STM32L4xx_HAL_Driver/Src/stm32l4xx_hal_dac.c ****   
 674:Drivers/STM32L4xx_HAL_Driver/Src/stm32l4xx_hal_dac.c ****   /* Process locked */
 675:Drivers/STM32L4xx_HAL_Driver/Src/stm32l4xx_hal_dac.c ****   __HAL_LOCK(hdac);
 332              		.loc 1 675 0
 333 0004 4479     		ldrb	r4, [r0, #5]	@ zero_extendqisi2
 334 0006 012C     		cmp	r4, #1
 335 0008 64D0     		beq	.L43
 336              		.loc 1 675 0 is_stmt 0 discriminator 2
 337 000a 0124     		movs	r4, #1
 338 000c 4471     		strb	r4, [r0, #5]
ARM GAS  /tmp/ccNW8x26.s 			page 19


 676:Drivers/STM32L4xx_HAL_Driver/Src/stm32l4xx_hal_dac.c ****   
 677:Drivers/STM32L4xx_HAL_Driver/Src/stm32l4xx_hal_dac.c ****   /* Change DAC state */
 678:Drivers/STM32L4xx_HAL_Driver/Src/stm32l4xx_hal_dac.c ****   hdac->State = HAL_DAC_STATE_BUSY;
 339              		.loc 1 678 0 is_stmt 1 discriminator 2
 340 000e 0224     		movs	r4, #2
 341 0010 0471     		strb	r4, [r0, #4]
 679:Drivers/STM32L4xx_HAL_Driver/Src/stm32l4xx_hal_dac.c ****   
 680:Drivers/STM32L4xx_HAL_Driver/Src/stm32l4xx_hal_dac.c ****   if(Channel == DAC_CHANNEL_1)
 342              		.loc 1 680 0 discriminator 2
 343 0012 0029     		cmp	r1, #0
 344 0014 35D1     		bne	.L33
 681:Drivers/STM32L4xx_HAL_Driver/Src/stm32l4xx_hal_dac.c ****   {
 682:Drivers/STM32L4xx_HAL_Driver/Src/stm32l4xx_hal_dac.c ****     /* Set the DMA transfer complete callback for channel1 */
 683:Drivers/STM32L4xx_HAL_Driver/Src/stm32l4xx_hal_dac.c ****     hdac->DMA_Handle1->XferCpltCallback = DAC_DMAConvCpltCh1;
 345              		.loc 1 683 0
 346 0016 8468     		ldr	r4, [r0, #8]
 347 0018 2F4D     		ldr	r5, .L51
 348 001a E562     		str	r5, [r4, #44]
 684:Drivers/STM32L4xx_HAL_Driver/Src/stm32l4xx_hal_dac.c ****     
 685:Drivers/STM32L4xx_HAL_Driver/Src/stm32l4xx_hal_dac.c ****     /* Set the DMA half transfer complete callback for channel1 */
 686:Drivers/STM32L4xx_HAL_Driver/Src/stm32l4xx_hal_dac.c ****     hdac->DMA_Handle1->XferHalfCpltCallback = DAC_DMAHalfConvCpltCh1;
 349              		.loc 1 686 0
 350 001c 8468     		ldr	r4, [r0, #8]
 351 001e 2F4D     		ldr	r5, .L51+4
 352 0020 2563     		str	r5, [r4, #48]
 687:Drivers/STM32L4xx_HAL_Driver/Src/stm32l4xx_hal_dac.c ****        
 688:Drivers/STM32L4xx_HAL_Driver/Src/stm32l4xx_hal_dac.c ****     /* Set the DMA error callback for channel1 */
 689:Drivers/STM32L4xx_HAL_Driver/Src/stm32l4xx_hal_dac.c ****     hdac->DMA_Handle1->XferErrorCallback = DAC_DMAErrorCh1;
 353              		.loc 1 689 0
 354 0022 8468     		ldr	r4, [r0, #8]
 355 0024 2E4D     		ldr	r5, .L51+8
 356 0026 6563     		str	r5, [r4, #52]
 690:Drivers/STM32L4xx_HAL_Driver/Src/stm32l4xx_hal_dac.c ****     
 691:Drivers/STM32L4xx_HAL_Driver/Src/stm32l4xx_hal_dac.c ****     /* Enable the selected DAC channel1 DMA request */
 692:Drivers/STM32L4xx_HAL_Driver/Src/stm32l4xx_hal_dac.c ****     SET_BIT(hdac->Instance->CR, DAC_CR_DMAEN1);
 357              		.loc 1 692 0
 358 0028 0568     		ldr	r5, [r0]
 359 002a 2C68     		ldr	r4, [r5]
 360 002c 44F48054 		orr	r4, r4, #4096
 361 0030 2C60     		str	r4, [r5]
 693:Drivers/STM32L4xx_HAL_Driver/Src/stm32l4xx_hal_dac.c ****     
 694:Drivers/STM32L4xx_HAL_Driver/Src/stm32l4xx_hal_dac.c ****     /* Case of use of channel 1 */
 695:Drivers/STM32L4xx_HAL_Driver/Src/stm32l4xx_hal_dac.c ****     switch(Alignment)
 362              		.loc 1 695 0
 363 0032 042E     		cmp	r6, #4
 364 0034 1FD0     		beq	.L35
 365 0036 082E     		cmp	r6, #8
 366 0038 20D0     		beq	.L36
 367 003a CEB1     		cbz	r6, .L49
 668:Drivers/STM32L4xx_HAL_Driver/Src/stm32l4xx_hal_dac.c ****     
 368              		.loc 1 668 0
 369 003c 0E46     		mov	r6, r1
 370              	.LVL21:
 371              	.L34:
 372 003e 1746     		mov	r7, r2
 373 0040 0D46     		mov	r5, r1
 374 0042 0446     		mov	r4, r0
ARM GAS  /tmp/ccNW8x26.s 			page 20


 375              	.LVL22:
 696:Drivers/STM32L4xx_HAL_Driver/Src/stm32l4xx_hal_dac.c ****     {
 697:Drivers/STM32L4xx_HAL_Driver/Src/stm32l4xx_hal_dac.c ****       case DAC_ALIGN_12B_R:
 698:Drivers/STM32L4xx_HAL_Driver/Src/stm32l4xx_hal_dac.c ****         /* Get DHR12R1 address */
 699:Drivers/STM32L4xx_HAL_Driver/Src/stm32l4xx_hal_dac.c ****         tmpreg = (uint32_t)&hdac->Instance->DHR12R1;
 700:Drivers/STM32L4xx_HAL_Driver/Src/stm32l4xx_hal_dac.c ****         break;
 701:Drivers/STM32L4xx_HAL_Driver/Src/stm32l4xx_hal_dac.c ****       case DAC_ALIGN_12B_L:
 702:Drivers/STM32L4xx_HAL_Driver/Src/stm32l4xx_hal_dac.c ****         /* Get DHR12L1 address */
 703:Drivers/STM32L4xx_HAL_Driver/Src/stm32l4xx_hal_dac.c ****         tmpreg = (uint32_t)&hdac->Instance->DHR12L1;
 704:Drivers/STM32L4xx_HAL_Driver/Src/stm32l4xx_hal_dac.c ****         break;
 705:Drivers/STM32L4xx_HAL_Driver/Src/stm32l4xx_hal_dac.c ****       case DAC_ALIGN_8B_R:
 706:Drivers/STM32L4xx_HAL_Driver/Src/stm32l4xx_hal_dac.c ****         /* Get DHR8R1 address */
 707:Drivers/STM32L4xx_HAL_Driver/Src/stm32l4xx_hal_dac.c ****         tmpreg = (uint32_t)&hdac->Instance->DHR8R1;
 708:Drivers/STM32L4xx_HAL_Driver/Src/stm32l4xx_hal_dac.c ****         break;
 709:Drivers/STM32L4xx_HAL_Driver/Src/stm32l4xx_hal_dac.c ****       default:
 710:Drivers/STM32L4xx_HAL_Driver/Src/stm32l4xx_hal_dac.c ****         break;
 711:Drivers/STM32L4xx_HAL_Driver/Src/stm32l4xx_hal_dac.c ****     }
 712:Drivers/STM32L4xx_HAL_Driver/Src/stm32l4xx_hal_dac.c ****   }
 713:Drivers/STM32L4xx_HAL_Driver/Src/stm32l4xx_hal_dac.c ****   else
 714:Drivers/STM32L4xx_HAL_Driver/Src/stm32l4xx_hal_dac.c ****   {
 715:Drivers/STM32L4xx_HAL_Driver/Src/stm32l4xx_hal_dac.c ****     /* Set the DMA transfer complete callback for channel2 */
 716:Drivers/STM32L4xx_HAL_Driver/Src/stm32l4xx_hal_dac.c ****     hdac->DMA_Handle2->XferCpltCallback = DAC_DMAConvCpltCh2;
 717:Drivers/STM32L4xx_HAL_Driver/Src/stm32l4xx_hal_dac.c ****     
 718:Drivers/STM32L4xx_HAL_Driver/Src/stm32l4xx_hal_dac.c ****     /* Set the DMA half transfer complete callback for channel2 */
 719:Drivers/STM32L4xx_HAL_Driver/Src/stm32l4xx_hal_dac.c ****     hdac->DMA_Handle2->XferHalfCpltCallback = DAC_DMAHalfConvCpltCh2;
 720:Drivers/STM32L4xx_HAL_Driver/Src/stm32l4xx_hal_dac.c ****        
 721:Drivers/STM32L4xx_HAL_Driver/Src/stm32l4xx_hal_dac.c ****     /* Set the DMA error callback for channel2 */
 722:Drivers/STM32L4xx_HAL_Driver/Src/stm32l4xx_hal_dac.c ****     hdac->DMA_Handle2->XferErrorCallback = DAC_DMAErrorCh2;
 723:Drivers/STM32L4xx_HAL_Driver/Src/stm32l4xx_hal_dac.c ****     
 724:Drivers/STM32L4xx_HAL_Driver/Src/stm32l4xx_hal_dac.c ****     /* Enable the selected DAC channel2 DMA request */
 725:Drivers/STM32L4xx_HAL_Driver/Src/stm32l4xx_hal_dac.c ****     SET_BIT(hdac->Instance->CR, DAC_CR_DMAEN2);
 726:Drivers/STM32L4xx_HAL_Driver/Src/stm32l4xx_hal_dac.c ****     
 727:Drivers/STM32L4xx_HAL_Driver/Src/stm32l4xx_hal_dac.c ****     /* Case of use of channel 2 */
 728:Drivers/STM32L4xx_HAL_Driver/Src/stm32l4xx_hal_dac.c ****     switch(Alignment)
 729:Drivers/STM32L4xx_HAL_Driver/Src/stm32l4xx_hal_dac.c ****     {
 730:Drivers/STM32L4xx_HAL_Driver/Src/stm32l4xx_hal_dac.c ****       case DAC_ALIGN_12B_R:
 731:Drivers/STM32L4xx_HAL_Driver/Src/stm32l4xx_hal_dac.c ****         /* Get DHR12R2 address */
 732:Drivers/STM32L4xx_HAL_Driver/Src/stm32l4xx_hal_dac.c ****         tmpreg = (uint32_t)&hdac->Instance->DHR12R2;
 733:Drivers/STM32L4xx_HAL_Driver/Src/stm32l4xx_hal_dac.c ****         break;
 734:Drivers/STM32L4xx_HAL_Driver/Src/stm32l4xx_hal_dac.c ****       case DAC_ALIGN_12B_L:
 735:Drivers/STM32L4xx_HAL_Driver/Src/stm32l4xx_hal_dac.c ****         /* Get DHR12L2 address */
 736:Drivers/STM32L4xx_HAL_Driver/Src/stm32l4xx_hal_dac.c ****         tmpreg = (uint32_t)&hdac->Instance->DHR12L2;
 737:Drivers/STM32L4xx_HAL_Driver/Src/stm32l4xx_hal_dac.c ****         break;
 738:Drivers/STM32L4xx_HAL_Driver/Src/stm32l4xx_hal_dac.c ****       case DAC_ALIGN_8B_R:
 739:Drivers/STM32L4xx_HAL_Driver/Src/stm32l4xx_hal_dac.c ****         /* Get DHR8R2 address */
 740:Drivers/STM32L4xx_HAL_Driver/Src/stm32l4xx_hal_dac.c ****         tmpreg = (uint32_t)&hdac->Instance->DHR8R2;
 741:Drivers/STM32L4xx_HAL_Driver/Src/stm32l4xx_hal_dac.c ****         break;
 742:Drivers/STM32L4xx_HAL_Driver/Src/stm32l4xx_hal_dac.c ****       default:
 743:Drivers/STM32L4xx_HAL_Driver/Src/stm32l4xx_hal_dac.c ****         break;
 744:Drivers/STM32L4xx_HAL_Driver/Src/stm32l4xx_hal_dac.c ****     }
 745:Drivers/STM32L4xx_HAL_Driver/Src/stm32l4xx_hal_dac.c ****   }
 746:Drivers/STM32L4xx_HAL_Driver/Src/stm32l4xx_hal_dac.c ****   
 747:Drivers/STM32L4xx_HAL_Driver/Src/stm32l4xx_hal_dac.c ****   /* Enable the DMA channel */
 748:Drivers/STM32L4xx_HAL_Driver/Src/stm32l4xx_hal_dac.c ****   if(Channel == DAC_CHANNEL_1)
 376              		.loc 1 748 0
 377 0044 0029     		cmp	r1, #0
 378 0046 3AD1     		bne	.L41
ARM GAS  /tmp/ccNW8x26.s 			page 21


 749:Drivers/STM32L4xx_HAL_Driver/Src/stm32l4xx_hal_dac.c ****   {
 750:Drivers/STM32L4xx_HAL_Driver/Src/stm32l4xx_hal_dac.c ****     /* Enable the DAC DMA underrun interrupt */
 751:Drivers/STM32L4xx_HAL_Driver/Src/stm32l4xx_hal_dac.c ****     __HAL_DAC_ENABLE_IT(hdac, DAC_IT_DMAUDR1);
 379              		.loc 1 751 0
 380 0048 0168     		ldr	r1, [r0]
 381              	.LVL23:
 382 004a 0A68     		ldr	r2, [r1]
 383              	.LVL24:
 384 004c 42F40052 		orr	r2, r2, #8192
 385 0050 0A60     		str	r2, [r1]
 752:Drivers/STM32L4xx_HAL_Driver/Src/stm32l4xx_hal_dac.c ****     
 753:Drivers/STM32L4xx_HAL_Driver/Src/stm32l4xx_hal_dac.c ****     /* Enable the DMA channel */
 754:Drivers/STM32L4xx_HAL_Driver/Src/stm32l4xx_hal_dac.c ****     HAL_DMA_Start_IT(hdac->DMA_Handle1, (uint32_t)pData, tmpreg, Length);
 386              		.loc 1 754 0
 387 0052 3246     		mov	r2, r6
 388 0054 3946     		mov	r1, r7
 389 0056 8068     		ldr	r0, [r0, #8]
 390              	.LVL25:
 391 0058 FFF7FEFF 		bl	HAL_DMA_Start_IT
 392              	.LVL26:
 393              	.L42:
 755:Drivers/STM32L4xx_HAL_Driver/Src/stm32l4xx_hal_dac.c ****   } 
 756:Drivers/STM32L4xx_HAL_Driver/Src/stm32l4xx_hal_dac.c ****   else
 757:Drivers/STM32L4xx_HAL_Driver/Src/stm32l4xx_hal_dac.c ****   {
 758:Drivers/STM32L4xx_HAL_Driver/Src/stm32l4xx_hal_dac.c ****     /* Enable the DAC DMA underrun interrupt */
 759:Drivers/STM32L4xx_HAL_Driver/Src/stm32l4xx_hal_dac.c ****     __HAL_DAC_ENABLE_IT(hdac, DAC_IT_DMAUDR2);
 760:Drivers/STM32L4xx_HAL_Driver/Src/stm32l4xx_hal_dac.c ****     
 761:Drivers/STM32L4xx_HAL_Driver/Src/stm32l4xx_hal_dac.c ****     /* Enable the DMA channel */
 762:Drivers/STM32L4xx_HAL_Driver/Src/stm32l4xx_hal_dac.c ****     HAL_DMA_Start_IT(hdac->DMA_Handle2, (uint32_t)pData, tmpreg, Length);
 763:Drivers/STM32L4xx_HAL_Driver/Src/stm32l4xx_hal_dac.c ****   }
 764:Drivers/STM32L4xx_HAL_Driver/Src/stm32l4xx_hal_dac.c ****   
 765:Drivers/STM32L4xx_HAL_Driver/Src/stm32l4xx_hal_dac.c ****   /* Process Unlocked */
 766:Drivers/STM32L4xx_HAL_Driver/Src/stm32l4xx_hal_dac.c ****   __HAL_UNLOCK(hdac);
 394              		.loc 1 766 0
 395 005c 0020     		movs	r0, #0
 396 005e 6071     		strb	r0, [r4, #5]
 767:Drivers/STM32L4xx_HAL_Driver/Src/stm32l4xx_hal_dac.c **** 
 768:Drivers/STM32L4xx_HAL_Driver/Src/stm32l4xx_hal_dac.c ****   /* Enable the Peripheral */
 769:Drivers/STM32L4xx_HAL_Driver/Src/stm32l4xx_hal_dac.c ****   __HAL_DAC_ENABLE(hdac, Channel);
 397              		.loc 1 769 0
 398 0060 2268     		ldr	r2, [r4]
 399 0062 1368     		ldr	r3, [r2]
 400 0064 0121     		movs	r1, #1
 401 0066 01FA05F5 		lsl	r5, r1, r5
 402              	.LVL27:
 403 006a 1D43     		orrs	r5, r5, r3
 404 006c 1560     		str	r5, [r2]
 770:Drivers/STM32L4xx_HAL_Driver/Src/stm32l4xx_hal_dac.c ****   
 771:Drivers/STM32L4xx_HAL_Driver/Src/stm32l4xx_hal_dac.c ****   /* Return function status */
 772:Drivers/STM32L4xx_HAL_Driver/Src/stm32l4xx_hal_dac.c ****   return HAL_OK;
 405              		.loc 1 772 0
 406 006e F8BD     		pop	{r3, r4, r5, r6, r7, pc}
 407              	.LVL28:
 408              	.L49:
 699:Drivers/STM32L4xx_HAL_Driver/Src/stm32l4xx_hal_dac.c ****         break;
 409              		.loc 1 699 0
 410 0070 0668     		ldr	r6, [r0]
ARM GAS  /tmp/ccNW8x26.s 			page 22


 411 0072 0836     		adds	r6, r6, #8
 412              	.LVL29:
 700:Drivers/STM32L4xx_HAL_Driver/Src/stm32l4xx_hal_dac.c ****       case DAC_ALIGN_12B_L:
 413              		.loc 1 700 0
 414 0074 E3E7     		b	.L34
 415              	.LVL30:
 416              	.L35:
 703:Drivers/STM32L4xx_HAL_Driver/Src/stm32l4xx_hal_dac.c ****         break;
 417              		.loc 1 703 0
 418 0076 0668     		ldr	r6, [r0]
 419 0078 0C36     		adds	r6, r6, #12
 420              	.LVL31:
 704:Drivers/STM32L4xx_HAL_Driver/Src/stm32l4xx_hal_dac.c ****       case DAC_ALIGN_8B_R:
 421              		.loc 1 704 0
 422 007a E0E7     		b	.L34
 423              	.LVL32:
 424              	.L36:
 707:Drivers/STM32L4xx_HAL_Driver/Src/stm32l4xx_hal_dac.c ****         break;
 425              		.loc 1 707 0
 426 007c 0668     		ldr	r6, [r0]
 427 007e 1036     		adds	r6, r6, #16
 428              	.LVL33:
 708:Drivers/STM32L4xx_HAL_Driver/Src/stm32l4xx_hal_dac.c ****       default:
 429              		.loc 1 708 0
 430 0080 DDE7     		b	.L34
 431              	.LVL34:
 432              	.L33:
 716:Drivers/STM32L4xx_HAL_Driver/Src/stm32l4xx_hal_dac.c ****     
 433              		.loc 1 716 0
 434 0082 C468     		ldr	r4, [r0, #12]
 435 0084 174D     		ldr	r5, .L51+12
 436 0086 E562     		str	r5, [r4, #44]
 719:Drivers/STM32L4xx_HAL_Driver/Src/stm32l4xx_hal_dac.c ****        
 437              		.loc 1 719 0
 438 0088 C468     		ldr	r4, [r0, #12]
 439 008a 174D     		ldr	r5, .L51+16
 440 008c 2563     		str	r5, [r4, #48]
 722:Drivers/STM32L4xx_HAL_Driver/Src/stm32l4xx_hal_dac.c ****     
 441              		.loc 1 722 0
 442 008e C468     		ldr	r4, [r0, #12]
 443 0090 164D     		ldr	r5, .L51+20
 444 0092 6563     		str	r5, [r4, #52]
 725:Drivers/STM32L4xx_HAL_Driver/Src/stm32l4xx_hal_dac.c ****     
 445              		.loc 1 725 0
 446 0094 0568     		ldr	r5, [r0]
 447 0096 2C68     		ldr	r4, [r5]
 448 0098 44F08054 		orr	r4, r4, #268435456
 449 009c 2C60     		str	r4, [r5]
 728:Drivers/STM32L4xx_HAL_Driver/Src/stm32l4xx_hal_dac.c ****     {
 450              		.loc 1 728 0
 451 009e 042E     		cmp	r6, #4
 452 00a0 07D0     		beq	.L38
 453 00a2 082E     		cmp	r6, #8
 454 00a4 08D0     		beq	.L39
 455 00a6 0EB1     		cbz	r6, .L50
 668:Drivers/STM32L4xx_HAL_Driver/Src/stm32l4xx_hal_dac.c ****     
 456              		.loc 1 668 0
ARM GAS  /tmp/ccNW8x26.s 			page 23


 457 00a8 0026     		movs	r6, #0
 458 00aa C8E7     		b	.L34
 459              	.L50:
 732:Drivers/STM32L4xx_HAL_Driver/Src/stm32l4xx_hal_dac.c ****         break;
 460              		.loc 1 732 0
 461 00ac 0668     		ldr	r6, [r0]
 462 00ae 1436     		adds	r6, r6, #20
 463              	.LVL35:
 733:Drivers/STM32L4xx_HAL_Driver/Src/stm32l4xx_hal_dac.c ****       case DAC_ALIGN_12B_L:
 464              		.loc 1 733 0
 465 00b0 C5E7     		b	.L34
 466              	.LVL36:
 467              	.L38:
 736:Drivers/STM32L4xx_HAL_Driver/Src/stm32l4xx_hal_dac.c ****         break;
 468              		.loc 1 736 0
 469 00b2 0668     		ldr	r6, [r0]
 470 00b4 1836     		adds	r6, r6, #24
 471              	.LVL37:
 737:Drivers/STM32L4xx_HAL_Driver/Src/stm32l4xx_hal_dac.c ****       case DAC_ALIGN_8B_R:
 472              		.loc 1 737 0
 473 00b6 C2E7     		b	.L34
 474              	.LVL38:
 475              	.L39:
 740:Drivers/STM32L4xx_HAL_Driver/Src/stm32l4xx_hal_dac.c ****         break;
 476              		.loc 1 740 0
 477 00b8 0668     		ldr	r6, [r0]
 478 00ba 1C36     		adds	r6, r6, #28
 479              	.LVL39:
 741:Drivers/STM32L4xx_HAL_Driver/Src/stm32l4xx_hal_dac.c ****       default:
 480              		.loc 1 741 0
 481 00bc BFE7     		b	.L34
 482              	.L41:
 759:Drivers/STM32L4xx_HAL_Driver/Src/stm32l4xx_hal_dac.c ****     
 483              		.loc 1 759 0
 484 00be 0168     		ldr	r1, [r0]
 485              	.LVL40:
 486 00c0 0A68     		ldr	r2, [r1]
 487              	.LVL41:
 488 00c2 42F00052 		orr	r2, r2, #536870912
 489 00c6 0A60     		str	r2, [r1]
 762:Drivers/STM32L4xx_HAL_Driver/Src/stm32l4xx_hal_dac.c ****   }
 490              		.loc 1 762 0
 491 00c8 3246     		mov	r2, r6
 492 00ca 3946     		mov	r1, r7
 493 00cc C068     		ldr	r0, [r0, #12]
 494              	.LVL42:
 495 00ce FFF7FEFF 		bl	HAL_DMA_Start_IT
 496              	.LVL43:
 497 00d2 C3E7     		b	.L42
 498              	.LVL44:
 499              	.L43:
 675:Drivers/STM32L4xx_HAL_Driver/Src/stm32l4xx_hal_dac.c ****   
 500              		.loc 1 675 0
 501 00d4 0220     		movs	r0, #2
 502              	.LVL45:
 773:Drivers/STM32L4xx_HAL_Driver/Src/stm32l4xx_hal_dac.c **** }
 503              		.loc 1 773 0
ARM GAS  /tmp/ccNW8x26.s 			page 24


 504 00d6 F8BD     		pop	{r3, r4, r5, r6, r7, pc}
 505              	.LVL46:
 506              	.L52:
 507              		.align	2
 508              	.L51:
 509 00d8 00000000 		.word	DAC_DMAConvCpltCh1
 510 00dc 00000000 		.word	DAC_DMAHalfConvCpltCh1
 511 00e0 00000000 		.word	DAC_DMAErrorCh1
 512 00e4 00000000 		.word	DAC_DMAConvCpltCh2
 513 00e8 00000000 		.word	DAC_DMAHalfConvCpltCh2
 514 00ec 00000000 		.word	DAC_DMAErrorCh2
 515              		.cfi_endproc
 516              	.LFE315:
 518              		.section	.text.HAL_DAC_Stop_DMA,"ax",%progbits
 519              		.align	1
 520              		.global	HAL_DAC_Stop_DMA
 521              		.syntax unified
 522              		.thumb
 523              		.thumb_func
 524              		.fpu fpv4-sp-d16
 526              	HAL_DAC_Stop_DMA:
 527              	.LFB316:
 774:Drivers/STM32L4xx_HAL_Driver/Src/stm32l4xx_hal_dac.c **** #endif  /* STM32L431xx STM32L432xx STM32L433xx STM32L442xx STM32L443xx                         */
 775:Drivers/STM32L4xx_HAL_Driver/Src/stm32l4xx_hal_dac.c ****         /* STM32L471xx STM32L475xx STM32L476xx STM32L485xx STM32L486xx STM32L496xx STM32L4A6xx */
 776:Drivers/STM32L4xx_HAL_Driver/Src/stm32l4xx_hal_dac.c ****         /* STM32L4R5xx STM32L4R7xx STM32L4R9xx STM32L4S5xx STM32L4S7xx STM32L4S9xx             */
 777:Drivers/STM32L4xx_HAL_Driver/Src/stm32l4xx_hal_dac.c **** 
 778:Drivers/STM32L4xx_HAL_Driver/Src/stm32l4xx_hal_dac.c **** /**
 779:Drivers/STM32L4xx_HAL_Driver/Src/stm32l4xx_hal_dac.c ****   * @brief  Disables DAC and stop conversion of channel.
 780:Drivers/STM32L4xx_HAL_Driver/Src/stm32l4xx_hal_dac.c ****   * @param  hdac: pointer to a DAC_HandleTypeDef structure that contains
 781:Drivers/STM32L4xx_HAL_Driver/Src/stm32l4xx_hal_dac.c ****   *         the configuration information for the specified DAC.
 782:Drivers/STM32L4xx_HAL_Driver/Src/stm32l4xx_hal_dac.c ****   * @param  Channel: The selected DAC channel. 
 783:Drivers/STM32L4xx_HAL_Driver/Src/stm32l4xx_hal_dac.c ****   *          This parameter can be one of the following values:
 784:Drivers/STM32L4xx_HAL_Driver/Src/stm32l4xx_hal_dac.c ****   *            @arg DAC_CHANNEL_1: DAC Channel1 selected
 785:Drivers/STM32L4xx_HAL_Driver/Src/stm32l4xx_hal_dac.c ****   *            @arg DAC_CHANNEL_2: DAC Channel2 selected   
 786:Drivers/STM32L4xx_HAL_Driver/Src/stm32l4xx_hal_dac.c ****   * @retval HAL status
 787:Drivers/STM32L4xx_HAL_Driver/Src/stm32l4xx_hal_dac.c ****   */
 788:Drivers/STM32L4xx_HAL_Driver/Src/stm32l4xx_hal_dac.c **** HAL_StatusTypeDef HAL_DAC_Stop_DMA(DAC_HandleTypeDef* hdac, uint32_t Channel)
 789:Drivers/STM32L4xx_HAL_Driver/Src/stm32l4xx_hal_dac.c **** {
 528              		.loc 1 789 0
 529              		.cfi_startproc
 530              		@ args = 0, pretend = 0, frame = 0
 531              		@ frame_needed = 0, uses_anonymous_args = 0
 532              	.LVL47:
 533 0000 10B5     		push	{r4, lr}
 534              	.LCFI11:
 535              		.cfi_def_cfa_offset 8
 536              		.cfi_offset 4, -8
 537              		.cfi_offset 14, -4
 538 0002 0446     		mov	r4, r0
 539              	.LVL48:
 790:Drivers/STM32L4xx_HAL_Driver/Src/stm32l4xx_hal_dac.c ****    HAL_StatusTypeDef status = HAL_OK;
 791:Drivers/STM32L4xx_HAL_Driver/Src/stm32l4xx_hal_dac.c ****     
 792:Drivers/STM32L4xx_HAL_Driver/Src/stm32l4xx_hal_dac.c ****   /* Check the parameters */
 793:Drivers/STM32L4xx_HAL_Driver/Src/stm32l4xx_hal_dac.c ****   assert_param(IS_DAC_CHANNEL(Channel));
 794:Drivers/STM32L4xx_HAL_Driver/Src/stm32l4xx_hal_dac.c ****   
 795:Drivers/STM32L4xx_HAL_Driver/Src/stm32l4xx_hal_dac.c ****   /* Disable the selected DAC channel DMA request */
 796:Drivers/STM32L4xx_HAL_Driver/Src/stm32l4xx_hal_dac.c ****     hdac->Instance->CR &= ~(DAC_CR_DMAEN1 << Channel);
ARM GAS  /tmp/ccNW8x26.s 			page 25


 540              		.loc 1 796 0
 541 0004 0068     		ldr	r0, [r0]
 542              	.LVL49:
 543 0006 0368     		ldr	r3, [r0]
 544 0008 4FF48052 		mov	r2, #4096
 545 000c 8A40     		lsls	r2, r2, r1
 546 000e 23EA0203 		bic	r3, r3, r2
 547 0012 0360     		str	r3, [r0]
 797:Drivers/STM32L4xx_HAL_Driver/Src/stm32l4xx_hal_dac.c ****     
 798:Drivers/STM32L4xx_HAL_Driver/Src/stm32l4xx_hal_dac.c ****   /* Disable the Peripheral */
 799:Drivers/STM32L4xx_HAL_Driver/Src/stm32l4xx_hal_dac.c ****   __HAL_DAC_DISABLE(hdac, Channel);
 548              		.loc 1 799 0
 549 0014 2068     		ldr	r0, [r4]
 550 0016 0368     		ldr	r3, [r0]
 551 0018 0122     		movs	r2, #1
 552 001a 8A40     		lsls	r2, r2, r1
 553 001c 23EA0203 		bic	r3, r3, r2
 554 0020 0360     		str	r3, [r0]
 800:Drivers/STM32L4xx_HAL_Driver/Src/stm32l4xx_hal_dac.c ****   
 801:Drivers/STM32L4xx_HAL_Driver/Src/stm32l4xx_hal_dac.c ****   /* Disable the DMA channel */
 802:Drivers/STM32L4xx_HAL_Driver/Src/stm32l4xx_hal_dac.c **** #if defined (STM32L431xx) || defined (STM32L432xx) || defined (STM32L433xx) || defined (STM32L442xx
 803:Drivers/STM32L4xx_HAL_Driver/Src/stm32l4xx_hal_dac.c ****     defined (STM32L471xx) || defined (STM32L475xx) || defined (STM32L476xx) || defined (STM32L485xx
 804:Drivers/STM32L4xx_HAL_Driver/Src/stm32l4xx_hal_dac.c ****     defined (STM32L4R5xx) || defined (STM32L4R7xx) || defined (STM32L4R9xx) || defined (STM32L4S5xx
 805:Drivers/STM32L4xx_HAL_Driver/Src/stm32l4xx_hal_dac.c ****   /* Channel1 is used */
 806:Drivers/STM32L4xx_HAL_Driver/Src/stm32l4xx_hal_dac.c ****   if (Channel == DAC_CHANNEL_1)
 555              		.loc 1 806 0
 556 0022 59B9     		cbnz	r1, .L54
 807:Drivers/STM32L4xx_HAL_Driver/Src/stm32l4xx_hal_dac.c ****   {
 808:Drivers/STM32L4xx_HAL_Driver/Src/stm32l4xx_hal_dac.c ****     /* Disable the DMA channel */
 809:Drivers/STM32L4xx_HAL_Driver/Src/stm32l4xx_hal_dac.c ****     status = HAL_DMA_Abort(hdac->DMA_Handle1);
 557              		.loc 1 809 0
 558 0024 A068     		ldr	r0, [r4, #8]
 559 0026 FFF7FEFF 		bl	HAL_DMA_Abort
 560              	.LVL50:
 810:Drivers/STM32L4xx_HAL_Driver/Src/stm32l4xx_hal_dac.c ****     
 811:Drivers/STM32L4xx_HAL_Driver/Src/stm32l4xx_hal_dac.c ****     /* Disable the DAC DMA underrun interrupt */
 812:Drivers/STM32L4xx_HAL_Driver/Src/stm32l4xx_hal_dac.c ****     __HAL_DAC_DISABLE_IT(hdac, DAC_IT_DMAUDR1);
 561              		.loc 1 812 0
 562 002a 2268     		ldr	r2, [r4]
 563 002c 1368     		ldr	r3, [r2]
 564 002e 23F40053 		bic	r3, r3, #8192
 565 0032 1360     		str	r3, [r2]
 566              	.L55:
 813:Drivers/STM32L4xx_HAL_Driver/Src/stm32l4xx_hal_dac.c ****   }
 814:Drivers/STM32L4xx_HAL_Driver/Src/stm32l4xx_hal_dac.c ****   else /* Channel2 is used for */
 815:Drivers/STM32L4xx_HAL_Driver/Src/stm32l4xx_hal_dac.c ****   {
 816:Drivers/STM32L4xx_HAL_Driver/Src/stm32l4xx_hal_dac.c ****     /* Disable the DMA channel */
 817:Drivers/STM32L4xx_HAL_Driver/Src/stm32l4xx_hal_dac.c ****     status = HAL_DMA_Abort(hdac->DMA_Handle2);
 818:Drivers/STM32L4xx_HAL_Driver/Src/stm32l4xx_hal_dac.c ****     
 819:Drivers/STM32L4xx_HAL_Driver/Src/stm32l4xx_hal_dac.c ****     /* Disable the DAC DMA underrun interrupt */
 820:Drivers/STM32L4xx_HAL_Driver/Src/stm32l4xx_hal_dac.c ****     __HAL_DAC_DISABLE_IT(hdac, DAC_IT_DMAUDR2);
 821:Drivers/STM32L4xx_HAL_Driver/Src/stm32l4xx_hal_dac.c ****   }
 822:Drivers/STM32L4xx_HAL_Driver/Src/stm32l4xx_hal_dac.c **** #endif  /* STM32L431xx STM32L432xx STM32L433xx STM32L442xx STM32L443xx                         */
 823:Drivers/STM32L4xx_HAL_Driver/Src/stm32l4xx_hal_dac.c ****         /* STM32L471xx STM32L475xx STM32L476xx STM32L485xx STM32L486xx STM32L496xx STM32L4A6xx */
 824:Drivers/STM32L4xx_HAL_Driver/Src/stm32l4xx_hal_dac.c ****         /* STM32L4R5xx STM32L4R7xx STM32L4R9xx STM32L4S5xx STM32L4S7xx STM32L4S9xx             */
 825:Drivers/STM32L4xx_HAL_Driver/Src/stm32l4xx_hal_dac.c **** 
 826:Drivers/STM32L4xx_HAL_Driver/Src/stm32l4xx_hal_dac.c **** #if defined (STM32L451xx) || defined (STM32L452xx) || defined (STM32L462xx)
ARM GAS  /tmp/ccNW8x26.s 			page 26


 827:Drivers/STM32L4xx_HAL_Driver/Src/stm32l4xx_hal_dac.c ****   /* Disable the DMA channel */
 828:Drivers/STM32L4xx_HAL_Driver/Src/stm32l4xx_hal_dac.c ****   status = HAL_DMA_Abort(hdac->DMA_Handle1);
 829:Drivers/STM32L4xx_HAL_Driver/Src/stm32l4xx_hal_dac.c ****     
 830:Drivers/STM32L4xx_HAL_Driver/Src/stm32l4xx_hal_dac.c ****   /* Disable the DAC DMA underrun interrupt */
 831:Drivers/STM32L4xx_HAL_Driver/Src/stm32l4xx_hal_dac.c ****   __HAL_DAC_DISABLE_IT(hdac, DAC_IT_DMAUDR1);
 832:Drivers/STM32L4xx_HAL_Driver/Src/stm32l4xx_hal_dac.c **** #endif /* STM32L451xx STM32L452xx STM32L462xx */  
 833:Drivers/STM32L4xx_HAL_Driver/Src/stm32l4xx_hal_dac.c ****   
 834:Drivers/STM32L4xx_HAL_Driver/Src/stm32l4xx_hal_dac.c ****   /* Check if DMA Channel effectively disabled */
 835:Drivers/STM32L4xx_HAL_Driver/Src/stm32l4xx_hal_dac.c ****   if (status != HAL_OK)
 567              		.loc 1 835 0
 568 0034 58B9     		cbnz	r0, .L59
 836:Drivers/STM32L4xx_HAL_Driver/Src/stm32l4xx_hal_dac.c ****   {
 837:Drivers/STM32L4xx_HAL_Driver/Src/stm32l4xx_hal_dac.c ****     /* Update DAC state machine to error */
 838:Drivers/STM32L4xx_HAL_Driver/Src/stm32l4xx_hal_dac.c ****     hdac->State = HAL_DAC_STATE_ERROR;
 839:Drivers/STM32L4xx_HAL_Driver/Src/stm32l4xx_hal_dac.c ****   }
 840:Drivers/STM32L4xx_HAL_Driver/Src/stm32l4xx_hal_dac.c ****   else
 841:Drivers/STM32L4xx_HAL_Driver/Src/stm32l4xx_hal_dac.c ****   {
 842:Drivers/STM32L4xx_HAL_Driver/Src/stm32l4xx_hal_dac.c ****     /* Change DAC state */
 843:Drivers/STM32L4xx_HAL_Driver/Src/stm32l4xx_hal_dac.c ****     hdac->State = HAL_DAC_STATE_READY;
 569              		.loc 1 843 0
 570 0036 0123     		movs	r3, #1
 571 0038 2371     		strb	r3, [r4, #4]
 844:Drivers/STM32L4xx_HAL_Driver/Src/stm32l4xx_hal_dac.c ****   }
 845:Drivers/STM32L4xx_HAL_Driver/Src/stm32l4xx_hal_dac.c ****   
 846:Drivers/STM32L4xx_HAL_Driver/Src/stm32l4xx_hal_dac.c ****   /* Return function status */
 847:Drivers/STM32L4xx_HAL_Driver/Src/stm32l4xx_hal_dac.c ****   return status;
 848:Drivers/STM32L4xx_HAL_Driver/Src/stm32l4xx_hal_dac.c **** }
 572              		.loc 1 848 0
 573 003a 10BD     		pop	{r4, pc}
 574              	.LVL51:
 575              	.L54:
 817:Drivers/STM32L4xx_HAL_Driver/Src/stm32l4xx_hal_dac.c ****     
 576              		.loc 1 817 0
 577 003c E068     		ldr	r0, [r4, #12]
 578 003e FFF7FEFF 		bl	HAL_DMA_Abort
 579              	.LVL52:
 820:Drivers/STM32L4xx_HAL_Driver/Src/stm32l4xx_hal_dac.c ****   }
 580              		.loc 1 820 0
 581 0042 2268     		ldr	r2, [r4]
 582 0044 1368     		ldr	r3, [r2]
 583 0046 23F00053 		bic	r3, r3, #536870912
 584 004a 1360     		str	r3, [r2]
 585 004c F2E7     		b	.L55
 586              	.L59:
 838:Drivers/STM32L4xx_HAL_Driver/Src/stm32l4xx_hal_dac.c ****   }
 587              		.loc 1 838 0
 588 004e 0423     		movs	r3, #4
 589 0050 2371     		strb	r3, [r4, #4]
 590 0052 10BD     		pop	{r4, pc}
 591              		.cfi_endproc
 592              	.LFE316:
 594              		.section	.text.HAL_DAC_SetValue,"ax",%progbits
 595              		.align	1
 596              		.global	HAL_DAC_SetValue
 597              		.syntax unified
 598              		.thumb
 599              		.thumb_func
ARM GAS  /tmp/ccNW8x26.s 			page 27


 600              		.fpu fpv4-sp-d16
 602              	HAL_DAC_SetValue:
 603              	.LFB318:
 849:Drivers/STM32L4xx_HAL_Driver/Src/stm32l4xx_hal_dac.c **** 
 850:Drivers/STM32L4xx_HAL_Driver/Src/stm32l4xx_hal_dac.c **** /* DAC channel 2 is available on top of DAC channel 1 in */
 851:Drivers/STM32L4xx_HAL_Driver/Src/stm32l4xx_hal_dac.c **** /* STM32L431xx STM32L432xx STM32L433xx STM32L442xx STM32L443xx                         */
 852:Drivers/STM32L4xx_HAL_Driver/Src/stm32l4xx_hal_dac.c **** /* STM32L471xx STM32L475xx STM32L476xx STM32L485xx STM32L486xx STM32L496xx STM32L4A6xx */
 853:Drivers/STM32L4xx_HAL_Driver/Src/stm32l4xx_hal_dac.c **** 
 854:Drivers/STM32L4xx_HAL_Driver/Src/stm32l4xx_hal_dac.c **** /**
 855:Drivers/STM32L4xx_HAL_Driver/Src/stm32l4xx_hal_dac.c ****   * @brief  Handles DAC interrupt request
 856:Drivers/STM32L4xx_HAL_Driver/Src/stm32l4xx_hal_dac.c ****   *         This function uses the interruption of DMA
 857:Drivers/STM32L4xx_HAL_Driver/Src/stm32l4xx_hal_dac.c ****   *         underrun.  
 858:Drivers/STM32L4xx_HAL_Driver/Src/stm32l4xx_hal_dac.c ****   * @param  hdac: pointer to a DAC_HandleTypeDef structure that contains
 859:Drivers/STM32L4xx_HAL_Driver/Src/stm32l4xx_hal_dac.c ****   *         the configuration information for the specified DAC.
 860:Drivers/STM32L4xx_HAL_Driver/Src/stm32l4xx_hal_dac.c ****   * @retval None
 861:Drivers/STM32L4xx_HAL_Driver/Src/stm32l4xx_hal_dac.c ****   */
 862:Drivers/STM32L4xx_HAL_Driver/Src/stm32l4xx_hal_dac.c **** void HAL_DAC_IRQHandler(DAC_HandleTypeDef* hdac)
 863:Drivers/STM32L4xx_HAL_Driver/Src/stm32l4xx_hal_dac.c **** {
 864:Drivers/STM32L4xx_HAL_Driver/Src/stm32l4xx_hal_dac.c ****   if(__HAL_DAC_GET_IT_SOURCE(hdac, DAC_IT_DMAUDR1))
 865:Drivers/STM32L4xx_HAL_Driver/Src/stm32l4xx_hal_dac.c ****   { 
 866:Drivers/STM32L4xx_HAL_Driver/Src/stm32l4xx_hal_dac.c ****     /* Check underrun flag of DAC channel 1 */
 867:Drivers/STM32L4xx_HAL_Driver/Src/stm32l4xx_hal_dac.c ****     if(__HAL_DAC_GET_FLAG(hdac, DAC_FLAG_DMAUDR1))
 868:Drivers/STM32L4xx_HAL_Driver/Src/stm32l4xx_hal_dac.c ****     {
 869:Drivers/STM32L4xx_HAL_Driver/Src/stm32l4xx_hal_dac.c ****       /* Change DAC state to error state */
 870:Drivers/STM32L4xx_HAL_Driver/Src/stm32l4xx_hal_dac.c ****       hdac->State = HAL_DAC_STATE_ERROR;
 871:Drivers/STM32L4xx_HAL_Driver/Src/stm32l4xx_hal_dac.c ****       
 872:Drivers/STM32L4xx_HAL_Driver/Src/stm32l4xx_hal_dac.c ****       /* Set DAC error code to chanel1 DMA underrun error */
 873:Drivers/STM32L4xx_HAL_Driver/Src/stm32l4xx_hal_dac.c ****       SET_BIT(hdac->ErrorCode, HAL_DAC_ERROR_DMAUNDERRUNCH1);
 874:Drivers/STM32L4xx_HAL_Driver/Src/stm32l4xx_hal_dac.c ****       
 875:Drivers/STM32L4xx_HAL_Driver/Src/stm32l4xx_hal_dac.c ****       /* Clear the underrun flag */
 876:Drivers/STM32L4xx_HAL_Driver/Src/stm32l4xx_hal_dac.c ****       __HAL_DAC_CLEAR_FLAG(hdac,DAC_FLAG_DMAUDR1);
 877:Drivers/STM32L4xx_HAL_Driver/Src/stm32l4xx_hal_dac.c ****       
 878:Drivers/STM32L4xx_HAL_Driver/Src/stm32l4xx_hal_dac.c ****       /* Disable the selected DAC channel1 DMA request */
 879:Drivers/STM32L4xx_HAL_Driver/Src/stm32l4xx_hal_dac.c ****       CLEAR_BIT(hdac->Instance->CR, DAC_CR_DMAEN1);
 880:Drivers/STM32L4xx_HAL_Driver/Src/stm32l4xx_hal_dac.c ****       
 881:Drivers/STM32L4xx_HAL_Driver/Src/stm32l4xx_hal_dac.c ****       /* Error callback */ 
 882:Drivers/STM32L4xx_HAL_Driver/Src/stm32l4xx_hal_dac.c ****       HAL_DAC_DMAUnderrunCallbackCh1(hdac);
 883:Drivers/STM32L4xx_HAL_Driver/Src/stm32l4xx_hal_dac.c ****     }
 884:Drivers/STM32L4xx_HAL_Driver/Src/stm32l4xx_hal_dac.c ****   }
 885:Drivers/STM32L4xx_HAL_Driver/Src/stm32l4xx_hal_dac.c **** #if defined (STM32L431xx) || defined (STM32L432xx) || defined (STM32L433xx) || defined (STM32L442xx
 886:Drivers/STM32L4xx_HAL_Driver/Src/stm32l4xx_hal_dac.c ****     defined (STM32L471xx) || defined (STM32L475xx) || defined (STM32L476xx) || defined (STM32L485xx
 887:Drivers/STM32L4xx_HAL_Driver/Src/stm32l4xx_hal_dac.c ****     defined (STM32L4R5xx) || defined (STM32L4R7xx) || defined (STM32L4R9xx) || defined (STM32L4S5xx
 888:Drivers/STM32L4xx_HAL_Driver/Src/stm32l4xx_hal_dac.c ****   if(__HAL_DAC_GET_IT_SOURCE(hdac, DAC_IT_DMAUDR2))
 889:Drivers/STM32L4xx_HAL_Driver/Src/stm32l4xx_hal_dac.c ****   {
 890:Drivers/STM32L4xx_HAL_Driver/Src/stm32l4xx_hal_dac.c ****     /* Check underrun flag of DAC channel 1 */
 891:Drivers/STM32L4xx_HAL_Driver/Src/stm32l4xx_hal_dac.c ****     if(__HAL_DAC_GET_FLAG(hdac, DAC_FLAG_DMAUDR2))
 892:Drivers/STM32L4xx_HAL_Driver/Src/stm32l4xx_hal_dac.c ****     {
 893:Drivers/STM32L4xx_HAL_Driver/Src/stm32l4xx_hal_dac.c ****       /* Change DAC state to error state */
 894:Drivers/STM32L4xx_HAL_Driver/Src/stm32l4xx_hal_dac.c ****       hdac->State = HAL_DAC_STATE_ERROR;
 895:Drivers/STM32L4xx_HAL_Driver/Src/stm32l4xx_hal_dac.c ****       
 896:Drivers/STM32L4xx_HAL_Driver/Src/stm32l4xx_hal_dac.c ****       /* Set DAC error code to channel2 DMA underrun error */
 897:Drivers/STM32L4xx_HAL_Driver/Src/stm32l4xx_hal_dac.c ****       SET_BIT(hdac->ErrorCode, HAL_DAC_ERROR_DMAUNDERRUNCH2);
 898:Drivers/STM32L4xx_HAL_Driver/Src/stm32l4xx_hal_dac.c ****       
 899:Drivers/STM32L4xx_HAL_Driver/Src/stm32l4xx_hal_dac.c ****       /* Clear the underrun flag */
 900:Drivers/STM32L4xx_HAL_Driver/Src/stm32l4xx_hal_dac.c ****       __HAL_DAC_CLEAR_FLAG(hdac,DAC_FLAG_DMAUDR2);
 901:Drivers/STM32L4xx_HAL_Driver/Src/stm32l4xx_hal_dac.c ****       
 902:Drivers/STM32L4xx_HAL_Driver/Src/stm32l4xx_hal_dac.c ****       /* Disable the selected DAC channel1 DMA request */
ARM GAS  /tmp/ccNW8x26.s 			page 28


 903:Drivers/STM32L4xx_HAL_Driver/Src/stm32l4xx_hal_dac.c ****       CLEAR_BIT(hdac->Instance->CR, DAC_CR_DMAEN2);
 904:Drivers/STM32L4xx_HAL_Driver/Src/stm32l4xx_hal_dac.c ****       
 905:Drivers/STM32L4xx_HAL_Driver/Src/stm32l4xx_hal_dac.c ****       /* Error callback */ 
 906:Drivers/STM32L4xx_HAL_Driver/Src/stm32l4xx_hal_dac.c ****       HAL_DACEx_DMAUnderrunCallbackCh2(hdac);
 907:Drivers/STM32L4xx_HAL_Driver/Src/stm32l4xx_hal_dac.c ****     }
 908:Drivers/STM32L4xx_HAL_Driver/Src/stm32l4xx_hal_dac.c ****   }
 909:Drivers/STM32L4xx_HAL_Driver/Src/stm32l4xx_hal_dac.c **** #endif  /* STM32L431xx STM32L432xx STM32L433xx STM32L442xx STM32L443xx                         */
 910:Drivers/STM32L4xx_HAL_Driver/Src/stm32l4xx_hal_dac.c ****         /* STM32L471xx STM32L475xx STM32L476xx STM32L485xx STM32L486xx STM32L496xx STM32L4A6xx */
 911:Drivers/STM32L4xx_HAL_Driver/Src/stm32l4xx_hal_dac.c ****         /* STM32L4R5xx STM32L4R7xx STM32L4R9xx STM32L4S5xx STM32L4S7xx STM32L4S9xx             */
 912:Drivers/STM32L4xx_HAL_Driver/Src/stm32l4xx_hal_dac.c **** }
 913:Drivers/STM32L4xx_HAL_Driver/Src/stm32l4xx_hal_dac.c **** 
 914:Drivers/STM32L4xx_HAL_Driver/Src/stm32l4xx_hal_dac.c **** /**
 915:Drivers/STM32L4xx_HAL_Driver/Src/stm32l4xx_hal_dac.c ****   * @brief  Set the specified data holding register value for DAC channel.
 916:Drivers/STM32L4xx_HAL_Driver/Src/stm32l4xx_hal_dac.c ****   * @param  hdac: pointer to a DAC_HandleTypeDef structure that contains
 917:Drivers/STM32L4xx_HAL_Driver/Src/stm32l4xx_hal_dac.c ****   *         the configuration information for the specified DAC.
 918:Drivers/STM32L4xx_HAL_Driver/Src/stm32l4xx_hal_dac.c ****   * @param  Channel: The selected DAC channel. 
 919:Drivers/STM32L4xx_HAL_Driver/Src/stm32l4xx_hal_dac.c ****   *          This parameter can be one of the following values:
 920:Drivers/STM32L4xx_HAL_Driver/Src/stm32l4xx_hal_dac.c ****   *            @arg DAC_CHANNEL_1: DAC Channel1 selected
 921:Drivers/STM32L4xx_HAL_Driver/Src/stm32l4xx_hal_dac.c ****   *            @arg DAC_CHANNEL_2: DAC Channel2 selected  
 922:Drivers/STM32L4xx_HAL_Driver/Src/stm32l4xx_hal_dac.c ****   * @param  Alignment: Specifies the data alignment.
 923:Drivers/STM32L4xx_HAL_Driver/Src/stm32l4xx_hal_dac.c ****   *          This parameter can be one of the following values:
 924:Drivers/STM32L4xx_HAL_Driver/Src/stm32l4xx_hal_dac.c ****   *            @arg DAC_ALIGN_8B_R: 8bit right data alignment selected
 925:Drivers/STM32L4xx_HAL_Driver/Src/stm32l4xx_hal_dac.c ****   *            @arg DAC_ALIGN_12B_L: 12bit left data alignment selected
 926:Drivers/STM32L4xx_HAL_Driver/Src/stm32l4xx_hal_dac.c ****   *            @arg DAC_ALIGN_12B_R: 12bit right data alignment selected
 927:Drivers/STM32L4xx_HAL_Driver/Src/stm32l4xx_hal_dac.c ****   * @param  Data: Data to be loaded in the selected data holding register.
 928:Drivers/STM32L4xx_HAL_Driver/Src/stm32l4xx_hal_dac.c ****   * @retval HAL status
 929:Drivers/STM32L4xx_HAL_Driver/Src/stm32l4xx_hal_dac.c ****   */
 930:Drivers/STM32L4xx_HAL_Driver/Src/stm32l4xx_hal_dac.c **** HAL_StatusTypeDef HAL_DAC_SetValue(DAC_HandleTypeDef* hdac, uint32_t Channel, uint32_t Alignment, u
 931:Drivers/STM32L4xx_HAL_Driver/Src/stm32l4xx_hal_dac.c **** {  
 604              		.loc 1 931 0
 605              		.cfi_startproc
 606              		@ args = 0, pretend = 0, frame = 8
 607              		@ frame_needed = 0, uses_anonymous_args = 0
 608              		@ link register save eliminated.
 609              	.LVL53:
 610 0000 10B4     		push	{r4}
 611              	.LCFI12:
 612              		.cfi_def_cfa_offset 4
 613              		.cfi_offset 4, -4
 614 0002 83B0     		sub	sp, sp, #12
 615              	.LCFI13:
 616              		.cfi_def_cfa_offset 16
 932:Drivers/STM32L4xx_HAL_Driver/Src/stm32l4xx_hal_dac.c ****   __IO uint32_t tmp = 0;
 617              		.loc 1 932 0
 618 0004 0024     		movs	r4, #0
 619 0006 0194     		str	r4, [sp, #4]
 933:Drivers/STM32L4xx_HAL_Driver/Src/stm32l4xx_hal_dac.c ****   
 934:Drivers/STM32L4xx_HAL_Driver/Src/stm32l4xx_hal_dac.c ****   /* Check the parameters */
 935:Drivers/STM32L4xx_HAL_Driver/Src/stm32l4xx_hal_dac.c ****   assert_param(IS_DAC_CHANNEL(Channel));
 936:Drivers/STM32L4xx_HAL_Driver/Src/stm32l4xx_hal_dac.c ****   assert_param(IS_DAC_ALIGN(Alignment));
 937:Drivers/STM32L4xx_HAL_Driver/Src/stm32l4xx_hal_dac.c ****   assert_param(IS_DAC_DATA(Data));
 938:Drivers/STM32L4xx_HAL_Driver/Src/stm32l4xx_hal_dac.c ****   
 939:Drivers/STM32L4xx_HAL_Driver/Src/stm32l4xx_hal_dac.c ****   tmp = (uint32_t)hdac->Instance; 
 620              		.loc 1 939 0
 621 0008 0068     		ldr	r0, [r0]
 622              	.LVL54:
 623 000a 0190     		str	r0, [sp, #4]
ARM GAS  /tmp/ccNW8x26.s 			page 29


 940:Drivers/STM32L4xx_HAL_Driver/Src/stm32l4xx_hal_dac.c ****   if(Channel == DAC_CHANNEL_1)
 624              		.loc 1 940 0
 625 000c 51B1     		cbz	r1, .L64
 941:Drivers/STM32L4xx_HAL_Driver/Src/stm32l4xx_hal_dac.c ****   {
 942:Drivers/STM32L4xx_HAL_Driver/Src/stm32l4xx_hal_dac.c ****     tmp += DAC_DHR12R1_ALIGNMENT(Alignment);
 943:Drivers/STM32L4xx_HAL_Driver/Src/stm32l4xx_hal_dac.c ****   }
 944:Drivers/STM32L4xx_HAL_Driver/Src/stm32l4xx_hal_dac.c ****   else
 945:Drivers/STM32L4xx_HAL_Driver/Src/stm32l4xx_hal_dac.c ****   {
 946:Drivers/STM32L4xx_HAL_Driver/Src/stm32l4xx_hal_dac.c ****     tmp += DAC_DHR12R2_ALIGNMENT(Alignment);
 626              		.loc 1 946 0
 627 000e 0199     		ldr	r1, [sp, #4]
 628              	.LVL55:
 629 0010 0A44     		add	r2, r2, r1
 630              	.LVL56:
 631 0012 1432     		adds	r2, r2, #20
 632 0014 0192     		str	r2, [sp, #4]
 633              	.L62:
 947:Drivers/STM32L4xx_HAL_Driver/Src/stm32l4xx_hal_dac.c ****   }
 948:Drivers/STM32L4xx_HAL_Driver/Src/stm32l4xx_hal_dac.c **** 
 949:Drivers/STM32L4xx_HAL_Driver/Src/stm32l4xx_hal_dac.c ****   /* Set the DAC channel selected data holding register */
 950:Drivers/STM32L4xx_HAL_Driver/Src/stm32l4xx_hal_dac.c ****   *(__IO uint32_t *) tmp = Data;
 634              		.loc 1 950 0
 635 0016 019A     		ldr	r2, [sp, #4]
 636 0018 1360     		str	r3, [r2]
 951:Drivers/STM32L4xx_HAL_Driver/Src/stm32l4xx_hal_dac.c ****   
 952:Drivers/STM32L4xx_HAL_Driver/Src/stm32l4xx_hal_dac.c ****   /* Return function status */
 953:Drivers/STM32L4xx_HAL_Driver/Src/stm32l4xx_hal_dac.c ****   return HAL_OK;
 954:Drivers/STM32L4xx_HAL_Driver/Src/stm32l4xx_hal_dac.c **** }
 637              		.loc 1 954 0
 638 001a 0020     		movs	r0, #0
 639 001c 03B0     		add	sp, sp, #12
 640              	.LCFI14:
 641              		.cfi_remember_state
 642              		.cfi_def_cfa_offset 4
 643              		@ sp needed
 644 001e 5DF8044B 		ldr	r4, [sp], #4
 645              	.LCFI15:
 646              		.cfi_restore 4
 647              		.cfi_def_cfa_offset 0
 648 0022 7047     		bx	lr
 649              	.LVL57:
 650              	.L64:
 651              	.LCFI16:
 652              		.cfi_restore_state
 942:Drivers/STM32L4xx_HAL_Driver/Src/stm32l4xx_hal_dac.c ****   }
 653              		.loc 1 942 0
 654 0024 0199     		ldr	r1, [sp, #4]
 655              	.LVL58:
 656 0026 0A44     		add	r2, r2, r1
 657              	.LVL59:
 658 0028 0832     		adds	r2, r2, #8
 659 002a 0192     		str	r2, [sp, #4]
 660 002c F3E7     		b	.L62
 661              		.cfi_endproc
 662              	.LFE318:
 664              		.section	.text.HAL_DAC_ConvCpltCallbackCh1,"ax",%progbits
 665              		.align	1
ARM GAS  /tmp/ccNW8x26.s 			page 30


 666              		.weak	HAL_DAC_ConvCpltCallbackCh1
 667              		.syntax unified
 668              		.thumb
 669              		.thumb_func
 670              		.fpu fpv4-sp-d16
 672              	HAL_DAC_ConvCpltCallbackCh1:
 673              	.LFB319:
 955:Drivers/STM32L4xx_HAL_Driver/Src/stm32l4xx_hal_dac.c **** 
 956:Drivers/STM32L4xx_HAL_Driver/Src/stm32l4xx_hal_dac.c **** /**
 957:Drivers/STM32L4xx_HAL_Driver/Src/stm32l4xx_hal_dac.c ****   * @brief  Conversion complete callback in non-blocking mode for Channel1 
 958:Drivers/STM32L4xx_HAL_Driver/Src/stm32l4xx_hal_dac.c ****   * @param  hdac: pointer to a DAC_HandleTypeDef structure that contains
 959:Drivers/STM32L4xx_HAL_Driver/Src/stm32l4xx_hal_dac.c ****   *         the configuration information for the specified DAC.
 960:Drivers/STM32L4xx_HAL_Driver/Src/stm32l4xx_hal_dac.c ****   * @retval None
 961:Drivers/STM32L4xx_HAL_Driver/Src/stm32l4xx_hal_dac.c ****   */
 962:Drivers/STM32L4xx_HAL_Driver/Src/stm32l4xx_hal_dac.c **** __weak void HAL_DAC_ConvCpltCallbackCh1(DAC_HandleTypeDef* hdac)
 963:Drivers/STM32L4xx_HAL_Driver/Src/stm32l4xx_hal_dac.c **** {
 674              		.loc 1 963 0
 675              		.cfi_startproc
 676              		@ args = 0, pretend = 0, frame = 0
 677              		@ frame_needed = 0, uses_anonymous_args = 0
 678              		@ link register save eliminated.
 679              	.LVL60:
 680 0000 7047     		bx	lr
 681              		.cfi_endproc
 682              	.LFE319:
 684              		.section	.text.DAC_DMAConvCpltCh1,"ax",%progbits
 685              		.align	1
 686              		.syntax unified
 687              		.thumb
 688              		.thumb_func
 689              		.fpu fpv4-sp-d16
 691              	DAC_DMAConvCpltCh1:
 692              	.LFB327:
 964:Drivers/STM32L4xx_HAL_Driver/Src/stm32l4xx_hal_dac.c ****   /* Prevent unused argument(s) compilation warning */
 965:Drivers/STM32L4xx_HAL_Driver/Src/stm32l4xx_hal_dac.c ****   UNUSED(hdac);
 966:Drivers/STM32L4xx_HAL_Driver/Src/stm32l4xx_hal_dac.c **** 
 967:Drivers/STM32L4xx_HAL_Driver/Src/stm32l4xx_hal_dac.c ****   /* NOTE : This function should not be modified, when the callback is needed,
 968:Drivers/STM32L4xx_HAL_Driver/Src/stm32l4xx_hal_dac.c ****             the HAL_DAC_ConvCpltCallbackCh1 could be implemented in the user file
 969:Drivers/STM32L4xx_HAL_Driver/Src/stm32l4xx_hal_dac.c ****    */
 970:Drivers/STM32L4xx_HAL_Driver/Src/stm32l4xx_hal_dac.c **** }
 971:Drivers/STM32L4xx_HAL_Driver/Src/stm32l4xx_hal_dac.c **** 
 972:Drivers/STM32L4xx_HAL_Driver/Src/stm32l4xx_hal_dac.c **** /**
 973:Drivers/STM32L4xx_HAL_Driver/Src/stm32l4xx_hal_dac.c ****   * @brief  Conversion half DMA transfer callback in non-blocking mode for Channel1 
 974:Drivers/STM32L4xx_HAL_Driver/Src/stm32l4xx_hal_dac.c ****   * @param  hdac: pointer to a DAC_HandleTypeDef structure that contains
 975:Drivers/STM32L4xx_HAL_Driver/Src/stm32l4xx_hal_dac.c ****   *         the configuration information for the specified DAC.
 976:Drivers/STM32L4xx_HAL_Driver/Src/stm32l4xx_hal_dac.c ****   * @retval None
 977:Drivers/STM32L4xx_HAL_Driver/Src/stm32l4xx_hal_dac.c ****   */
 978:Drivers/STM32L4xx_HAL_Driver/Src/stm32l4xx_hal_dac.c **** __weak void HAL_DAC_ConvHalfCpltCallbackCh1(DAC_HandleTypeDef* hdac)
 979:Drivers/STM32L4xx_HAL_Driver/Src/stm32l4xx_hal_dac.c **** {
 980:Drivers/STM32L4xx_HAL_Driver/Src/stm32l4xx_hal_dac.c ****   /* Prevent unused argument(s) compilation warning */
 981:Drivers/STM32L4xx_HAL_Driver/Src/stm32l4xx_hal_dac.c ****   UNUSED(hdac);
 982:Drivers/STM32L4xx_HAL_Driver/Src/stm32l4xx_hal_dac.c **** 
 983:Drivers/STM32L4xx_HAL_Driver/Src/stm32l4xx_hal_dac.c ****   /* NOTE : This function should not be modified, when the callback is needed,
 984:Drivers/STM32L4xx_HAL_Driver/Src/stm32l4xx_hal_dac.c ****             the HAL_DAC_ConvHalfCpltCallbackCh1 could be implemented in the user file
 985:Drivers/STM32L4xx_HAL_Driver/Src/stm32l4xx_hal_dac.c ****    */
 986:Drivers/STM32L4xx_HAL_Driver/Src/stm32l4xx_hal_dac.c **** }
 987:Drivers/STM32L4xx_HAL_Driver/Src/stm32l4xx_hal_dac.c **** 
ARM GAS  /tmp/ccNW8x26.s 			page 31


 988:Drivers/STM32L4xx_HAL_Driver/Src/stm32l4xx_hal_dac.c **** /**
 989:Drivers/STM32L4xx_HAL_Driver/Src/stm32l4xx_hal_dac.c ****   * @brief  Error DAC callback for Channel1.
 990:Drivers/STM32L4xx_HAL_Driver/Src/stm32l4xx_hal_dac.c ****   * @param  hdac: pointer to a DAC_HandleTypeDef structure that contains
 991:Drivers/STM32L4xx_HAL_Driver/Src/stm32l4xx_hal_dac.c ****   *         the configuration information for the specified DAC.
 992:Drivers/STM32L4xx_HAL_Driver/Src/stm32l4xx_hal_dac.c ****   * @retval None
 993:Drivers/STM32L4xx_HAL_Driver/Src/stm32l4xx_hal_dac.c ****   */
 994:Drivers/STM32L4xx_HAL_Driver/Src/stm32l4xx_hal_dac.c **** __weak void HAL_DAC_ErrorCallbackCh1(DAC_HandleTypeDef *hdac)
 995:Drivers/STM32L4xx_HAL_Driver/Src/stm32l4xx_hal_dac.c **** {
 996:Drivers/STM32L4xx_HAL_Driver/Src/stm32l4xx_hal_dac.c ****   /* Prevent unused argument(s) compilation warning */
 997:Drivers/STM32L4xx_HAL_Driver/Src/stm32l4xx_hal_dac.c ****   UNUSED(hdac);
 998:Drivers/STM32L4xx_HAL_Driver/Src/stm32l4xx_hal_dac.c **** 
 999:Drivers/STM32L4xx_HAL_Driver/Src/stm32l4xx_hal_dac.c ****   /* NOTE : This function should not be modified, when the callback is needed,
1000:Drivers/STM32L4xx_HAL_Driver/Src/stm32l4xx_hal_dac.c ****             the HAL_DAC_ErrorCallbackCh1 could be implemented in the user file
1001:Drivers/STM32L4xx_HAL_Driver/Src/stm32l4xx_hal_dac.c ****    */
1002:Drivers/STM32L4xx_HAL_Driver/Src/stm32l4xx_hal_dac.c **** }
1003:Drivers/STM32L4xx_HAL_Driver/Src/stm32l4xx_hal_dac.c **** 
1004:Drivers/STM32L4xx_HAL_Driver/Src/stm32l4xx_hal_dac.c **** /**
1005:Drivers/STM32L4xx_HAL_Driver/Src/stm32l4xx_hal_dac.c ****   * @brief  DMA underrun DAC callback for channel1.
1006:Drivers/STM32L4xx_HAL_Driver/Src/stm32l4xx_hal_dac.c ****   * @param  hdac: pointer to a DAC_HandleTypeDef structure that contains
1007:Drivers/STM32L4xx_HAL_Driver/Src/stm32l4xx_hal_dac.c ****   *         the configuration information for the specified DAC.
1008:Drivers/STM32L4xx_HAL_Driver/Src/stm32l4xx_hal_dac.c ****   * @retval None
1009:Drivers/STM32L4xx_HAL_Driver/Src/stm32l4xx_hal_dac.c ****   */
1010:Drivers/STM32L4xx_HAL_Driver/Src/stm32l4xx_hal_dac.c **** __weak void HAL_DAC_DMAUnderrunCallbackCh1(DAC_HandleTypeDef *hdac)
1011:Drivers/STM32L4xx_HAL_Driver/Src/stm32l4xx_hal_dac.c **** {
1012:Drivers/STM32L4xx_HAL_Driver/Src/stm32l4xx_hal_dac.c ****   /* Prevent unused argument(s) compilation warning */
1013:Drivers/STM32L4xx_HAL_Driver/Src/stm32l4xx_hal_dac.c ****   UNUSED(hdac);
1014:Drivers/STM32L4xx_HAL_Driver/Src/stm32l4xx_hal_dac.c **** 
1015:Drivers/STM32L4xx_HAL_Driver/Src/stm32l4xx_hal_dac.c ****   /* NOTE : This function should not be modified, when the callback is needed,
1016:Drivers/STM32L4xx_HAL_Driver/Src/stm32l4xx_hal_dac.c ****             the HAL_DAC_DMAUnderrunCallbackCh1 could be implemented in the user file
1017:Drivers/STM32L4xx_HAL_Driver/Src/stm32l4xx_hal_dac.c ****    */
1018:Drivers/STM32L4xx_HAL_Driver/Src/stm32l4xx_hal_dac.c **** }
1019:Drivers/STM32L4xx_HAL_Driver/Src/stm32l4xx_hal_dac.c **** 
1020:Drivers/STM32L4xx_HAL_Driver/Src/stm32l4xx_hal_dac.c **** /**
1021:Drivers/STM32L4xx_HAL_Driver/Src/stm32l4xx_hal_dac.c ****   * @}
1022:Drivers/STM32L4xx_HAL_Driver/Src/stm32l4xx_hal_dac.c ****   */
1023:Drivers/STM32L4xx_HAL_Driver/Src/stm32l4xx_hal_dac.c ****   
1024:Drivers/STM32L4xx_HAL_Driver/Src/stm32l4xx_hal_dac.c **** /** @defgroup DAC_Exported_Functions_Group3 Peripheral Control functions
1025:Drivers/STM32L4xx_HAL_Driver/Src/stm32l4xx_hal_dac.c ****  *  @brief    Peripheral Control functions 
1026:Drivers/STM32L4xx_HAL_Driver/Src/stm32l4xx_hal_dac.c ****  *
1027:Drivers/STM32L4xx_HAL_Driver/Src/stm32l4xx_hal_dac.c **** @verbatim   
1028:Drivers/STM32L4xx_HAL_Driver/Src/stm32l4xx_hal_dac.c ****   ==============================================================================
1029:Drivers/STM32L4xx_HAL_Driver/Src/stm32l4xx_hal_dac.c ****              ##### Peripheral Control functions #####
1030:Drivers/STM32L4xx_HAL_Driver/Src/stm32l4xx_hal_dac.c ****   ==============================================================================  
1031:Drivers/STM32L4xx_HAL_Driver/Src/stm32l4xx_hal_dac.c ****     [..]  This section provides functions allowing to:
1032:Drivers/STM32L4xx_HAL_Driver/Src/stm32l4xx_hal_dac.c ****       (+) Configure channels. 
1033:Drivers/STM32L4xx_HAL_Driver/Src/stm32l4xx_hal_dac.c ****       (+) Set the specified data holding register value for DAC channel.
1034:Drivers/STM32L4xx_HAL_Driver/Src/stm32l4xx_hal_dac.c ****       
1035:Drivers/STM32L4xx_HAL_Driver/Src/stm32l4xx_hal_dac.c **** @endverbatim
1036:Drivers/STM32L4xx_HAL_Driver/Src/stm32l4xx_hal_dac.c ****   * @{
1037:Drivers/STM32L4xx_HAL_Driver/Src/stm32l4xx_hal_dac.c ****   */
1038:Drivers/STM32L4xx_HAL_Driver/Src/stm32l4xx_hal_dac.c **** 
1039:Drivers/STM32L4xx_HAL_Driver/Src/stm32l4xx_hal_dac.c **** /**
1040:Drivers/STM32L4xx_HAL_Driver/Src/stm32l4xx_hal_dac.c ****   * @brief  Returns the last data output value of the selected DAC channel.
1041:Drivers/STM32L4xx_HAL_Driver/Src/stm32l4xx_hal_dac.c ****   * @param  hdac: pointer to a DAC_HandleTypeDef structure that contains
1042:Drivers/STM32L4xx_HAL_Driver/Src/stm32l4xx_hal_dac.c ****   *         the configuration information for the specified DAC.
1043:Drivers/STM32L4xx_HAL_Driver/Src/stm32l4xx_hal_dac.c ****   * @param  Channel: The selected DAC channel. 
1044:Drivers/STM32L4xx_HAL_Driver/Src/stm32l4xx_hal_dac.c ****   *          This parameter can be one of the following values:
ARM GAS  /tmp/ccNW8x26.s 			page 32


1045:Drivers/STM32L4xx_HAL_Driver/Src/stm32l4xx_hal_dac.c ****   *            @arg DAC_CHANNEL_1: DAC Channel1 selected
1046:Drivers/STM32L4xx_HAL_Driver/Src/stm32l4xx_hal_dac.c ****   *            @arg DAC_CHANNEL_2: DAC Channel2 selected
1047:Drivers/STM32L4xx_HAL_Driver/Src/stm32l4xx_hal_dac.c ****   * @retval The selected DAC channel data output value.
1048:Drivers/STM32L4xx_HAL_Driver/Src/stm32l4xx_hal_dac.c ****   */
1049:Drivers/STM32L4xx_HAL_Driver/Src/stm32l4xx_hal_dac.c **** uint32_t HAL_DAC_GetValue(DAC_HandleTypeDef* hdac, uint32_t Channel)
1050:Drivers/STM32L4xx_HAL_Driver/Src/stm32l4xx_hal_dac.c **** {
1051:Drivers/STM32L4xx_HAL_Driver/Src/stm32l4xx_hal_dac.c ****   /* Check the parameters */
1052:Drivers/STM32L4xx_HAL_Driver/Src/stm32l4xx_hal_dac.c ****   assert_param(IS_DAC_CHANNEL(Channel));
1053:Drivers/STM32L4xx_HAL_Driver/Src/stm32l4xx_hal_dac.c ****   
1054:Drivers/STM32L4xx_HAL_Driver/Src/stm32l4xx_hal_dac.c ****   /* Returns the DAC channel data output register value */
1055:Drivers/STM32L4xx_HAL_Driver/Src/stm32l4xx_hal_dac.c **** #if defined (STM32L451xx) || defined (STM32L452xx) || defined (STM32L462xx)
1056:Drivers/STM32L4xx_HAL_Driver/Src/stm32l4xx_hal_dac.c ****   return hdac->Instance->DOR1;
1057:Drivers/STM32L4xx_HAL_Driver/Src/stm32l4xx_hal_dac.c **** #endif /* STM32L451xx STM32L452xx STM32L462xx */   
1058:Drivers/STM32L4xx_HAL_Driver/Src/stm32l4xx_hal_dac.c **** 
1059:Drivers/STM32L4xx_HAL_Driver/Src/stm32l4xx_hal_dac.c **** #if defined (STM32L431xx) || defined (STM32L432xx) || defined (STM32L433xx) || defined (STM32L442xx
1060:Drivers/STM32L4xx_HAL_Driver/Src/stm32l4xx_hal_dac.c ****     defined (STM32L471xx) || defined (STM32L475xx) || defined (STM32L476xx) || defined (STM32L485xx
1061:Drivers/STM32L4xx_HAL_Driver/Src/stm32l4xx_hal_dac.c ****     defined (STM32L4R5xx) || defined (STM32L4R7xx) || defined (STM32L4R9xx) || defined (STM32L4S5xx
1062:Drivers/STM32L4xx_HAL_Driver/Src/stm32l4xx_hal_dac.c ****   if(Channel == DAC_CHANNEL_1)
1063:Drivers/STM32L4xx_HAL_Driver/Src/stm32l4xx_hal_dac.c ****   {
1064:Drivers/STM32L4xx_HAL_Driver/Src/stm32l4xx_hal_dac.c ****     return hdac->Instance->DOR1;
1065:Drivers/STM32L4xx_HAL_Driver/Src/stm32l4xx_hal_dac.c ****   }
1066:Drivers/STM32L4xx_HAL_Driver/Src/stm32l4xx_hal_dac.c ****   else
1067:Drivers/STM32L4xx_HAL_Driver/Src/stm32l4xx_hal_dac.c ****   {
1068:Drivers/STM32L4xx_HAL_Driver/Src/stm32l4xx_hal_dac.c ****     return hdac->Instance->DOR2;
1069:Drivers/STM32L4xx_HAL_Driver/Src/stm32l4xx_hal_dac.c ****   }
1070:Drivers/STM32L4xx_HAL_Driver/Src/stm32l4xx_hal_dac.c **** #endif  /* STM32L431xx STM32L432xx STM32L433xx STM32L442xx STM32L443xx                         */
1071:Drivers/STM32L4xx_HAL_Driver/Src/stm32l4xx_hal_dac.c ****         /* STM32L471xx STM32L475xx STM32L476xx STM32L485xx STM32L486xx STM32L496xx STM32L4A6xx */
1072:Drivers/STM32L4xx_HAL_Driver/Src/stm32l4xx_hal_dac.c ****         /* STM32L4R5xx STM32L4R7xx STM32L4R9xx STM32L4S5xx STM32L4S7xx STM32L4S9xx             */
1073:Drivers/STM32L4xx_HAL_Driver/Src/stm32l4xx_hal_dac.c **** }
1074:Drivers/STM32L4xx_HAL_Driver/Src/stm32l4xx_hal_dac.c **** 
1075:Drivers/STM32L4xx_HAL_Driver/Src/stm32l4xx_hal_dac.c **** /**
1076:Drivers/STM32L4xx_HAL_Driver/Src/stm32l4xx_hal_dac.c ****   * @brief  Configures the selected DAC channel.
1077:Drivers/STM32L4xx_HAL_Driver/Src/stm32l4xx_hal_dac.c ****   * @param  hdac: pointer to a DAC_HandleTypeDef structure that contains
1078:Drivers/STM32L4xx_HAL_Driver/Src/stm32l4xx_hal_dac.c ****   *         the configuration information for the specified DAC.
1079:Drivers/STM32L4xx_HAL_Driver/Src/stm32l4xx_hal_dac.c ****   * @param  sConfig: DAC configuration structure.
1080:Drivers/STM32L4xx_HAL_Driver/Src/stm32l4xx_hal_dac.c ****   * @param  Channel: The selected DAC channel. 
1081:Drivers/STM32L4xx_HAL_Driver/Src/stm32l4xx_hal_dac.c ****   *          This parameter can be one of the following values:
1082:Drivers/STM32L4xx_HAL_Driver/Src/stm32l4xx_hal_dac.c ****   *            @arg DAC_CHANNEL_1: DAC Channel1 selected
1083:Drivers/STM32L4xx_HAL_Driver/Src/stm32l4xx_hal_dac.c ****   *            @arg DAC_CHANNEL_2: DAC Channel2 selected (Whenever present)
1084:Drivers/STM32L4xx_HAL_Driver/Src/stm32l4xx_hal_dac.c ****   * @retval HAL status
1085:Drivers/STM32L4xx_HAL_Driver/Src/stm32l4xx_hal_dac.c ****   */
1086:Drivers/STM32L4xx_HAL_Driver/Src/stm32l4xx_hal_dac.c **** HAL_StatusTypeDef HAL_DAC_ConfigChannel(DAC_HandleTypeDef* hdac, DAC_ChannelConfTypeDef* sConfig, u
1087:Drivers/STM32L4xx_HAL_Driver/Src/stm32l4xx_hal_dac.c **** {
1088:Drivers/STM32L4xx_HAL_Driver/Src/stm32l4xx_hal_dac.c ****   uint32_t tmpreg1 = 0, tmpreg2 = 0;
1089:Drivers/STM32L4xx_HAL_Driver/Src/stm32l4xx_hal_dac.c ****   uint32_t tickstart = 0;
1090:Drivers/STM32L4xx_HAL_Driver/Src/stm32l4xx_hal_dac.c **** #if defined (STM32L4R5xx) || defined (STM32L4R7xx) || defined (STM32L4R9xx) || defined (STM32L4S5xx
1091:Drivers/STM32L4xx_HAL_Driver/Src/stm32l4xx_hal_dac.c ****   uint32_t hclkfreq = 0;
1092:Drivers/STM32L4xx_HAL_Driver/Src/stm32l4xx_hal_dac.c **** #endif /* STM32L4R5xx STM32L4R7xx STM32L4R9xx STM32L4S5xx STM32L4S7xx STM32L4S9xx */ 
1093:Drivers/STM32L4xx_HAL_Driver/Src/stm32l4xx_hal_dac.c ****   
1094:Drivers/STM32L4xx_HAL_Driver/Src/stm32l4xx_hal_dac.c ****   /* Check the DAC parameters */ 
1095:Drivers/STM32L4xx_HAL_Driver/Src/stm32l4xx_hal_dac.c **** #if defined (STM32L4R5xx) || defined (STM32L4R7xx) || defined (STM32L4R9xx) || defined (STM32L4S5xx
1096:Drivers/STM32L4xx_HAL_Driver/Src/stm32l4xx_hal_dac.c ****   assert_param(IS_DAC_HIGH_FREQUENCY_MODE(sConfig->DAC_HighFrequency)); 
1097:Drivers/STM32L4xx_HAL_Driver/Src/stm32l4xx_hal_dac.c **** #endif /* STM32L4R5xx STM32L4R7xx STM32L4R9xx STM32L4S5xx STM32L4S7xx STM32L4S9xx */
1098:Drivers/STM32L4xx_HAL_Driver/Src/stm32l4xx_hal_dac.c ****   assert_param(IS_DAC_TRIGGER(sConfig->DAC_Trigger));
1099:Drivers/STM32L4xx_HAL_Driver/Src/stm32l4xx_hal_dac.c ****   assert_param(IS_DAC_OUTPUT_BUFFER_STATE(sConfig->DAC_OutputBuffer));
1100:Drivers/STM32L4xx_HAL_Driver/Src/stm32l4xx_hal_dac.c ****   assert_param(IS_DAC_CHIP_CONNECTION(sConfig->DAC_ConnectOnChipPeripheral));
1101:Drivers/STM32L4xx_HAL_Driver/Src/stm32l4xx_hal_dac.c ****   assert_param(IS_DAC_TRIMMING(sConfig->DAC_UserTrimming));
ARM GAS  /tmp/ccNW8x26.s 			page 33


1102:Drivers/STM32L4xx_HAL_Driver/Src/stm32l4xx_hal_dac.c ****   if ((sConfig->DAC_UserTrimming) == DAC_TRIMMING_USER)
1103:Drivers/STM32L4xx_HAL_Driver/Src/stm32l4xx_hal_dac.c ****   {
1104:Drivers/STM32L4xx_HAL_Driver/Src/stm32l4xx_hal_dac.c ****     assert_param(IS_DAC_TRIMMINGVALUE(sConfig->DAC_TrimmingValue));               
1105:Drivers/STM32L4xx_HAL_Driver/Src/stm32l4xx_hal_dac.c ****   }
1106:Drivers/STM32L4xx_HAL_Driver/Src/stm32l4xx_hal_dac.c ****   assert_param(IS_DAC_SAMPLEANDHOLD(sConfig->DAC_SampleAndHold));
1107:Drivers/STM32L4xx_HAL_Driver/Src/stm32l4xx_hal_dac.c ****   if ((sConfig->DAC_SampleAndHold) == DAC_SAMPLEANDHOLD_ENABLE)
1108:Drivers/STM32L4xx_HAL_Driver/Src/stm32l4xx_hal_dac.c ****   {
1109:Drivers/STM32L4xx_HAL_Driver/Src/stm32l4xx_hal_dac.c ****     assert_param(IS_DAC_SAMPLETIME(sConfig->DAC_SampleAndHoldConfig.DAC_SampleTime));
1110:Drivers/STM32L4xx_HAL_Driver/Src/stm32l4xx_hal_dac.c ****     assert_param(IS_DAC_HOLDTIME(sConfig->DAC_SampleAndHoldConfig.DAC_HoldTime));
1111:Drivers/STM32L4xx_HAL_Driver/Src/stm32l4xx_hal_dac.c ****     assert_param(IS_DAC_REFRESHTIME(sConfig->DAC_SampleAndHoldConfig.DAC_RefreshTime)); 
1112:Drivers/STM32L4xx_HAL_Driver/Src/stm32l4xx_hal_dac.c ****   }
1113:Drivers/STM32L4xx_HAL_Driver/Src/stm32l4xx_hal_dac.c ****   assert_param(IS_DAC_CHANNEL(Channel));
1114:Drivers/STM32L4xx_HAL_Driver/Src/stm32l4xx_hal_dac.c ****  
1115:Drivers/STM32L4xx_HAL_Driver/Src/stm32l4xx_hal_dac.c ****   /* Process locked */
1116:Drivers/STM32L4xx_HAL_Driver/Src/stm32l4xx_hal_dac.c ****   __HAL_LOCK(hdac);
1117:Drivers/STM32L4xx_HAL_Driver/Src/stm32l4xx_hal_dac.c ****   
1118:Drivers/STM32L4xx_HAL_Driver/Src/stm32l4xx_hal_dac.c ****   /* Change DAC state */
1119:Drivers/STM32L4xx_HAL_Driver/Src/stm32l4xx_hal_dac.c ****   hdac->State = HAL_DAC_STATE_BUSY;
1120:Drivers/STM32L4xx_HAL_Driver/Src/stm32l4xx_hal_dac.c ****   
1121:Drivers/STM32L4xx_HAL_Driver/Src/stm32l4xx_hal_dac.c ****   if(sConfig->DAC_SampleAndHold == DAC_SAMPLEANDHOLD_ENABLE)
1122:Drivers/STM32L4xx_HAL_Driver/Src/stm32l4xx_hal_dac.c ****   /* Sample on old configuration */ 
1123:Drivers/STM32L4xx_HAL_Driver/Src/stm32l4xx_hal_dac.c ****   {
1124:Drivers/STM32L4xx_HAL_Driver/Src/stm32l4xx_hal_dac.c ****     /* SampleTime */
1125:Drivers/STM32L4xx_HAL_Driver/Src/stm32l4xx_hal_dac.c ****     if (Channel == DAC_CHANNEL_1)
1126:Drivers/STM32L4xx_HAL_Driver/Src/stm32l4xx_hal_dac.c ****     {
1127:Drivers/STM32L4xx_HAL_Driver/Src/stm32l4xx_hal_dac.c ****       /* Get timeout */
1128:Drivers/STM32L4xx_HAL_Driver/Src/stm32l4xx_hal_dac.c ****       tickstart = HAL_GetTick();
1129:Drivers/STM32L4xx_HAL_Driver/Src/stm32l4xx_hal_dac.c ****       
1130:Drivers/STM32L4xx_HAL_Driver/Src/stm32l4xx_hal_dac.c ****       /* SHSR1 can be written when BWST1  equals RESET */
1131:Drivers/STM32L4xx_HAL_Driver/Src/stm32l4xx_hal_dac.c ****       while (((hdac->Instance->SR) & DAC_SR_BWST1)!= RESET)
1132:Drivers/STM32L4xx_HAL_Driver/Src/stm32l4xx_hal_dac.c ****       {
1133:Drivers/STM32L4xx_HAL_Driver/Src/stm32l4xx_hal_dac.c ****         /* Check for the Timeout */
1134:Drivers/STM32L4xx_HAL_Driver/Src/stm32l4xx_hal_dac.c ****         if((HAL_GetTick() - tickstart) > TIMEOUT_DAC_CALIBCONFIG)
1135:Drivers/STM32L4xx_HAL_Driver/Src/stm32l4xx_hal_dac.c ****         {
1136:Drivers/STM32L4xx_HAL_Driver/Src/stm32l4xx_hal_dac.c ****           /* Update error code */
1137:Drivers/STM32L4xx_HAL_Driver/Src/stm32l4xx_hal_dac.c ****           SET_BIT(hdac->ErrorCode, HAL_DAC_ERROR_TIMEOUT);
1138:Drivers/STM32L4xx_HAL_Driver/Src/stm32l4xx_hal_dac.c **** 
1139:Drivers/STM32L4xx_HAL_Driver/Src/stm32l4xx_hal_dac.c ****           /* Change the DMA state */
1140:Drivers/STM32L4xx_HAL_Driver/Src/stm32l4xx_hal_dac.c ****           hdac->State = HAL_DAC_STATE_TIMEOUT;
1141:Drivers/STM32L4xx_HAL_Driver/Src/stm32l4xx_hal_dac.c **** 
1142:Drivers/STM32L4xx_HAL_Driver/Src/stm32l4xx_hal_dac.c ****           return HAL_TIMEOUT;
1143:Drivers/STM32L4xx_HAL_Driver/Src/stm32l4xx_hal_dac.c ****         }
1144:Drivers/STM32L4xx_HAL_Driver/Src/stm32l4xx_hal_dac.c ****       }
1145:Drivers/STM32L4xx_HAL_Driver/Src/stm32l4xx_hal_dac.c ****       HAL_Delay(1);
1146:Drivers/STM32L4xx_HAL_Driver/Src/stm32l4xx_hal_dac.c ****       hdac->Instance->SHSR1 = sConfig->DAC_SampleAndHoldConfig.DAC_SampleTime;
1147:Drivers/STM32L4xx_HAL_Driver/Src/stm32l4xx_hal_dac.c ****     }
1148:Drivers/STM32L4xx_HAL_Driver/Src/stm32l4xx_hal_dac.c **** #if !defined (STM32L451xx) & !defined (STM32L452xx) & !defined (STM32L462xx) 
1149:Drivers/STM32L4xx_HAL_Driver/Src/stm32l4xx_hal_dac.c ****     else /* Channel 2 */
1150:Drivers/STM32L4xx_HAL_Driver/Src/stm32l4xx_hal_dac.c ****     {
1151:Drivers/STM32L4xx_HAL_Driver/Src/stm32l4xx_hal_dac.c ****       /* SHSR2 can be written when BWST2 equals RESET */
1152:Drivers/STM32L4xx_HAL_Driver/Src/stm32l4xx_hal_dac.c **** 
1153:Drivers/STM32L4xx_HAL_Driver/Src/stm32l4xx_hal_dac.c ****       while (((hdac->Instance->SR) & DAC_SR_BWST2)!= RESET)
1154:Drivers/STM32L4xx_HAL_Driver/Src/stm32l4xx_hal_dac.c ****       {
1155:Drivers/STM32L4xx_HAL_Driver/Src/stm32l4xx_hal_dac.c ****         /* Check for the Timeout */
1156:Drivers/STM32L4xx_HAL_Driver/Src/stm32l4xx_hal_dac.c ****         if((HAL_GetTick() - tickstart) > TIMEOUT_DAC_CALIBCONFIG)
1157:Drivers/STM32L4xx_HAL_Driver/Src/stm32l4xx_hal_dac.c ****         {
1158:Drivers/STM32L4xx_HAL_Driver/Src/stm32l4xx_hal_dac.c ****           /* Update error code */
ARM GAS  /tmp/ccNW8x26.s 			page 34


1159:Drivers/STM32L4xx_HAL_Driver/Src/stm32l4xx_hal_dac.c ****           SET_BIT(hdac->ErrorCode, HAL_DAC_ERROR_TIMEOUT);
1160:Drivers/STM32L4xx_HAL_Driver/Src/stm32l4xx_hal_dac.c **** 
1161:Drivers/STM32L4xx_HAL_Driver/Src/stm32l4xx_hal_dac.c ****           /* Change the DMA state */
1162:Drivers/STM32L4xx_HAL_Driver/Src/stm32l4xx_hal_dac.c ****           hdac->State = HAL_DAC_STATE_TIMEOUT;
1163:Drivers/STM32L4xx_HAL_Driver/Src/stm32l4xx_hal_dac.c **** 
1164:Drivers/STM32L4xx_HAL_Driver/Src/stm32l4xx_hal_dac.c ****           return HAL_TIMEOUT;
1165:Drivers/STM32L4xx_HAL_Driver/Src/stm32l4xx_hal_dac.c ****         }
1166:Drivers/STM32L4xx_HAL_Driver/Src/stm32l4xx_hal_dac.c ****       }
1167:Drivers/STM32L4xx_HAL_Driver/Src/stm32l4xx_hal_dac.c ****       HAL_Delay(1);
1168:Drivers/STM32L4xx_HAL_Driver/Src/stm32l4xx_hal_dac.c ****       hdac->Instance->SHSR2 = sConfig->DAC_SampleAndHoldConfig.DAC_SampleTime;
1169:Drivers/STM32L4xx_HAL_Driver/Src/stm32l4xx_hal_dac.c ****     }
1170:Drivers/STM32L4xx_HAL_Driver/Src/stm32l4xx_hal_dac.c **** #endif /* STM32L451xx STM32L452xx STM32L462xx */   
1171:Drivers/STM32L4xx_HAL_Driver/Src/stm32l4xx_hal_dac.c ****     
1172:Drivers/STM32L4xx_HAL_Driver/Src/stm32l4xx_hal_dac.c ****     /* HoldTime */
1173:Drivers/STM32L4xx_HAL_Driver/Src/stm32l4xx_hal_dac.c ****     MODIFY_REG (hdac->Instance->SHHR, DAC_SHHR_THOLD1<<Channel, (sConfig->DAC_SampleAndHoldConfig.D
1174:Drivers/STM32L4xx_HAL_Driver/Src/stm32l4xx_hal_dac.c ****     /* RefreshTime */
1175:Drivers/STM32L4xx_HAL_Driver/Src/stm32l4xx_hal_dac.c ****     MODIFY_REG (hdac->Instance->SHRR, DAC_SHRR_TREFRESH1<<Channel, (sConfig->DAC_SampleAndHoldConfi
1176:Drivers/STM32L4xx_HAL_Driver/Src/stm32l4xx_hal_dac.c ****   }
1177:Drivers/STM32L4xx_HAL_Driver/Src/stm32l4xx_hal_dac.c ****     
1178:Drivers/STM32L4xx_HAL_Driver/Src/stm32l4xx_hal_dac.c ****   if(sConfig->DAC_UserTrimming == DAC_TRIMMING_USER)
1179:Drivers/STM32L4xx_HAL_Driver/Src/stm32l4xx_hal_dac.c ****   /* USER TRIMMING */
1180:Drivers/STM32L4xx_HAL_Driver/Src/stm32l4xx_hal_dac.c ****   {
1181:Drivers/STM32L4xx_HAL_Driver/Src/stm32l4xx_hal_dac.c ****   /* Get the DAC CCR value */
1182:Drivers/STM32L4xx_HAL_Driver/Src/stm32l4xx_hal_dac.c ****   tmpreg1 = hdac->Instance->CCR;
1183:Drivers/STM32L4xx_HAL_Driver/Src/stm32l4xx_hal_dac.c ****   /* Clear trimming value */
1184:Drivers/STM32L4xx_HAL_Driver/Src/stm32l4xx_hal_dac.c ****   tmpreg1 &= ~(((uint32_t)(DAC_CCR_OTRIM1)) << Channel);
1185:Drivers/STM32L4xx_HAL_Driver/Src/stm32l4xx_hal_dac.c ****   /* Configure for the selected trimming offset */
1186:Drivers/STM32L4xx_HAL_Driver/Src/stm32l4xx_hal_dac.c ****   tmpreg2 = sConfig->DAC_TrimmingValue;
1187:Drivers/STM32L4xx_HAL_Driver/Src/stm32l4xx_hal_dac.c ****   /* Calculate CCR register value depending on DAC_Channel */
1188:Drivers/STM32L4xx_HAL_Driver/Src/stm32l4xx_hal_dac.c ****   tmpreg1 |= tmpreg2 << Channel;
1189:Drivers/STM32L4xx_HAL_Driver/Src/stm32l4xx_hal_dac.c ****   /* Write to DAC CCR */
1190:Drivers/STM32L4xx_HAL_Driver/Src/stm32l4xx_hal_dac.c ****   hdac->Instance->CCR = tmpreg1;
1191:Drivers/STM32L4xx_HAL_Driver/Src/stm32l4xx_hal_dac.c ****   }
1192:Drivers/STM32L4xx_HAL_Driver/Src/stm32l4xx_hal_dac.c ****   /* else factory trimming is used (factory setting are available at reset)*/
1193:Drivers/STM32L4xx_HAL_Driver/Src/stm32l4xx_hal_dac.c ****   /* SW Nothing has nothing to do */
1194:Drivers/STM32L4xx_HAL_Driver/Src/stm32l4xx_hal_dac.c ****   
1195:Drivers/STM32L4xx_HAL_Driver/Src/stm32l4xx_hal_dac.c ****   /* Get the DAC MCR value */
1196:Drivers/STM32L4xx_HAL_Driver/Src/stm32l4xx_hal_dac.c ****   tmpreg1 = hdac->Instance->MCR;
1197:Drivers/STM32L4xx_HAL_Driver/Src/stm32l4xx_hal_dac.c ****   /* Clear DAC_MCR_MODE2_0, DAC_MCR_MODE2_1 and DAC_MCR_MODE2_2 bits */
1198:Drivers/STM32L4xx_HAL_Driver/Src/stm32l4xx_hal_dac.c ****   tmpreg1 &= ~(((uint32_t)(DAC_MCR_MODE1)) << Channel); 
1199:Drivers/STM32L4xx_HAL_Driver/Src/stm32l4xx_hal_dac.c ****   /* Configure for the selected DAC channel: mode, buffer output & on chip peripheral connect */
1200:Drivers/STM32L4xx_HAL_Driver/Src/stm32l4xx_hal_dac.c ****   tmpreg2 = (sConfig->DAC_SampleAndHold | sConfig->DAC_OutputBuffer | sConfig->DAC_ConnectOnChipPer
1201:Drivers/STM32L4xx_HAL_Driver/Src/stm32l4xx_hal_dac.c ****   /* Calculate MCR register value depending on DAC_Channel */
1202:Drivers/STM32L4xx_HAL_Driver/Src/stm32l4xx_hal_dac.c ****   tmpreg1 |= tmpreg2 << Channel;
1203:Drivers/STM32L4xx_HAL_Driver/Src/stm32l4xx_hal_dac.c ****   /* Write to DAC MCR */
1204:Drivers/STM32L4xx_HAL_Driver/Src/stm32l4xx_hal_dac.c ****   hdac->Instance->MCR = tmpreg1;
1205:Drivers/STM32L4xx_HAL_Driver/Src/stm32l4xx_hal_dac.c ****   
1206:Drivers/STM32L4xx_HAL_Driver/Src/stm32l4xx_hal_dac.c ****   /* DAC in normal operating mode hence clear DAC_CR_CENx bit */
1207:Drivers/STM32L4xx_HAL_Driver/Src/stm32l4xx_hal_dac.c ****   CLEAR_BIT (hdac->Instance->CR, DAC_CR_CEN1 << Channel);
1208:Drivers/STM32L4xx_HAL_Driver/Src/stm32l4xx_hal_dac.c ****   
1209:Drivers/STM32L4xx_HAL_Driver/Src/stm32l4xx_hal_dac.c ****   /* Get the DAC CR value */
1210:Drivers/STM32L4xx_HAL_Driver/Src/stm32l4xx_hal_dac.c ****   tmpreg1 = hdac->Instance->CR;
1211:Drivers/STM32L4xx_HAL_Driver/Src/stm32l4xx_hal_dac.c ****   /* Clear TENx, TSELx, WAVEx and MAMPx bits */
1212:Drivers/STM32L4xx_HAL_Driver/Src/stm32l4xx_hal_dac.c ****   tmpreg1 &= ~(((uint32_t)(DAC_CR_MAMP1 | DAC_CR_WAVE1 | DAC_CR_TSEL1 | DAC_CR_TEN1)) << Channel); 
1213:Drivers/STM32L4xx_HAL_Driver/Src/stm32l4xx_hal_dac.c ****   /* Configure for the selected DAC channel: trigger */
1214:Drivers/STM32L4xx_HAL_Driver/Src/stm32l4xx_hal_dac.c ****   /* Set TSELx and TENx bits according to DAC_Trigger value */
1215:Drivers/STM32L4xx_HAL_Driver/Src/stm32l4xx_hal_dac.c ****   tmpreg2 = (sConfig->DAC_Trigger);
ARM GAS  /tmp/ccNW8x26.s 			page 35


1216:Drivers/STM32L4xx_HAL_Driver/Src/stm32l4xx_hal_dac.c ****   /* Calculate CR register value depending on DAC_Channel */
1217:Drivers/STM32L4xx_HAL_Driver/Src/stm32l4xx_hal_dac.c ****   tmpreg1 |= tmpreg2 << Channel;
1218:Drivers/STM32L4xx_HAL_Driver/Src/stm32l4xx_hal_dac.c **** #if defined (STM32L4R5xx) || defined (STM32L4R7xx) || defined (STM32L4R9xx) || defined (STM32L4S5xx
1219:Drivers/STM32L4xx_HAL_Driver/Src/stm32l4xx_hal_dac.c ****   if(DAC_HIGH_FREQUENCY_INTERFACE_MODE_ABOVE_80MHZ == sConfig->DAC_HighFrequency)
1220:Drivers/STM32L4xx_HAL_Driver/Src/stm32l4xx_hal_dac.c ****   {
1221:Drivers/STM32L4xx_HAL_Driver/Src/stm32l4xx_hal_dac.c ****     tmpreg1 |= DAC_CR_HFSEL;
1222:Drivers/STM32L4xx_HAL_Driver/Src/stm32l4xx_hal_dac.c ****   }
1223:Drivers/STM32L4xx_HAL_Driver/Src/stm32l4xx_hal_dac.c ****   else 
1224:Drivers/STM32L4xx_HAL_Driver/Src/stm32l4xx_hal_dac.c ****   {
1225:Drivers/STM32L4xx_HAL_Driver/Src/stm32l4xx_hal_dac.c ****     if (DAC_HIGH_FREQUENCY_INTERFACE_MODE_DISABLE == sConfig->DAC_HighFrequency)
1226:Drivers/STM32L4xx_HAL_Driver/Src/stm32l4xx_hal_dac.c ****     {
1227:Drivers/STM32L4xx_HAL_Driver/Src/stm32l4xx_hal_dac.c ****       tmpreg1 &= ~(DAC_CR_HFSEL);
1228:Drivers/STM32L4xx_HAL_Driver/Src/stm32l4xx_hal_dac.c ****     }
1229:Drivers/STM32L4xx_HAL_Driver/Src/stm32l4xx_hal_dac.c ****     else /* Automatic selection */
1230:Drivers/STM32L4xx_HAL_Driver/Src/stm32l4xx_hal_dac.c ****     {
1231:Drivers/STM32L4xx_HAL_Driver/Src/stm32l4xx_hal_dac.c ****       hclkfreq = HAL_RCC_GetHCLKFreq();
1232:Drivers/STM32L4xx_HAL_Driver/Src/stm32l4xx_hal_dac.c ****       if (hclkfreq > HFSEL_ENABLE_THRESHOLD_80MHZ) 
1233:Drivers/STM32L4xx_HAL_Driver/Src/stm32l4xx_hal_dac.c ****       {  
1234:Drivers/STM32L4xx_HAL_Driver/Src/stm32l4xx_hal_dac.c ****         /* High frequency enable when HCLK frequency higher than 80   */
1235:Drivers/STM32L4xx_HAL_Driver/Src/stm32l4xx_hal_dac.c ****          tmpreg1 |= DAC_CR_HFSEL;
1236:Drivers/STM32L4xx_HAL_Driver/Src/stm32l4xx_hal_dac.c ****       }
1237:Drivers/STM32L4xx_HAL_Driver/Src/stm32l4xx_hal_dac.c ****       else
1238:Drivers/STM32L4xx_HAL_Driver/Src/stm32l4xx_hal_dac.c ****       {
1239:Drivers/STM32L4xx_HAL_Driver/Src/stm32l4xx_hal_dac.c ****         /* High frequency disable when HCLK frequency higher than 80  */
1240:Drivers/STM32L4xx_HAL_Driver/Src/stm32l4xx_hal_dac.c ****         tmpreg1 &= ~(DAC_CR_HFSEL);
1241:Drivers/STM32L4xx_HAL_Driver/Src/stm32l4xx_hal_dac.c ****       }
1242:Drivers/STM32L4xx_HAL_Driver/Src/stm32l4xx_hal_dac.c ****     }
1243:Drivers/STM32L4xx_HAL_Driver/Src/stm32l4xx_hal_dac.c ****   }
1244:Drivers/STM32L4xx_HAL_Driver/Src/stm32l4xx_hal_dac.c ****   
1245:Drivers/STM32L4xx_HAL_Driver/Src/stm32l4xx_hal_dac.c **** #endif /* STM32L4R5xx STM32L4R7xx STM32L4R9xx STM32L4S5xx STM32L4S7xx STM32L4S9xx */  
1246:Drivers/STM32L4xx_HAL_Driver/Src/stm32l4xx_hal_dac.c **** 
1247:Drivers/STM32L4xx_HAL_Driver/Src/stm32l4xx_hal_dac.c ****   /* Write to DAC CR */
1248:Drivers/STM32L4xx_HAL_Driver/Src/stm32l4xx_hal_dac.c ****   hdac->Instance->CR = tmpreg1;
1249:Drivers/STM32L4xx_HAL_Driver/Src/stm32l4xx_hal_dac.c ****       
1250:Drivers/STM32L4xx_HAL_Driver/Src/stm32l4xx_hal_dac.c ****   /* Disable wave generation */
1251:Drivers/STM32L4xx_HAL_Driver/Src/stm32l4xx_hal_dac.c ****   hdac->Instance->CR &= ~(DAC_CR_WAVE1 << Channel);
1252:Drivers/STM32L4xx_HAL_Driver/Src/stm32l4xx_hal_dac.c ****   
1253:Drivers/STM32L4xx_HAL_Driver/Src/stm32l4xx_hal_dac.c ****   /* Change DAC state */
1254:Drivers/STM32L4xx_HAL_Driver/Src/stm32l4xx_hal_dac.c ****   hdac->State = HAL_DAC_STATE_READY;
1255:Drivers/STM32L4xx_HAL_Driver/Src/stm32l4xx_hal_dac.c ****   
1256:Drivers/STM32L4xx_HAL_Driver/Src/stm32l4xx_hal_dac.c ****   /* Process unlocked */
1257:Drivers/STM32L4xx_HAL_Driver/Src/stm32l4xx_hal_dac.c ****   __HAL_UNLOCK(hdac);
1258:Drivers/STM32L4xx_HAL_Driver/Src/stm32l4xx_hal_dac.c ****   
1259:Drivers/STM32L4xx_HAL_Driver/Src/stm32l4xx_hal_dac.c ****   /* Return function status */
1260:Drivers/STM32L4xx_HAL_Driver/Src/stm32l4xx_hal_dac.c ****   return HAL_OK;
1261:Drivers/STM32L4xx_HAL_Driver/Src/stm32l4xx_hal_dac.c **** }
1262:Drivers/STM32L4xx_HAL_Driver/Src/stm32l4xx_hal_dac.c **** 
1263:Drivers/STM32L4xx_HAL_Driver/Src/stm32l4xx_hal_dac.c **** /**
1264:Drivers/STM32L4xx_HAL_Driver/Src/stm32l4xx_hal_dac.c ****   * @}
1265:Drivers/STM32L4xx_HAL_Driver/Src/stm32l4xx_hal_dac.c ****   */
1266:Drivers/STM32L4xx_HAL_Driver/Src/stm32l4xx_hal_dac.c **** 
1267:Drivers/STM32L4xx_HAL_Driver/Src/stm32l4xx_hal_dac.c **** /** @defgroup DAC_Exported_Functions_Group4 Peripheral State and Errors functions
1268:Drivers/STM32L4xx_HAL_Driver/Src/stm32l4xx_hal_dac.c ****  *  @brief   Peripheral State and Errors functions 
1269:Drivers/STM32L4xx_HAL_Driver/Src/stm32l4xx_hal_dac.c ****  *
1270:Drivers/STM32L4xx_HAL_Driver/Src/stm32l4xx_hal_dac.c **** @verbatim   
1271:Drivers/STM32L4xx_HAL_Driver/Src/stm32l4xx_hal_dac.c ****   ==============================================================================
1272:Drivers/STM32L4xx_HAL_Driver/Src/stm32l4xx_hal_dac.c ****             ##### Peripheral State and Errors functions #####
ARM GAS  /tmp/ccNW8x26.s 			page 36


1273:Drivers/STM32L4xx_HAL_Driver/Src/stm32l4xx_hal_dac.c ****   ==============================================================================  
1274:Drivers/STM32L4xx_HAL_Driver/Src/stm32l4xx_hal_dac.c ****     [..]
1275:Drivers/STM32L4xx_HAL_Driver/Src/stm32l4xx_hal_dac.c ****     This subsection provides functions allowing to
1276:Drivers/STM32L4xx_HAL_Driver/Src/stm32l4xx_hal_dac.c ****       (+) Check the DAC state.
1277:Drivers/STM32L4xx_HAL_Driver/Src/stm32l4xx_hal_dac.c ****       (+) Check the DAC Errors.
1278:Drivers/STM32L4xx_HAL_Driver/Src/stm32l4xx_hal_dac.c ****         
1279:Drivers/STM32L4xx_HAL_Driver/Src/stm32l4xx_hal_dac.c **** @endverbatim
1280:Drivers/STM32L4xx_HAL_Driver/Src/stm32l4xx_hal_dac.c ****   * @{
1281:Drivers/STM32L4xx_HAL_Driver/Src/stm32l4xx_hal_dac.c ****   */
1282:Drivers/STM32L4xx_HAL_Driver/Src/stm32l4xx_hal_dac.c **** 
1283:Drivers/STM32L4xx_HAL_Driver/Src/stm32l4xx_hal_dac.c **** /**
1284:Drivers/STM32L4xx_HAL_Driver/Src/stm32l4xx_hal_dac.c ****   * @brief  return the DAC handle state
1285:Drivers/STM32L4xx_HAL_Driver/Src/stm32l4xx_hal_dac.c ****   * @param  hdac: pointer to a DAC_HandleTypeDef structure that contains
1286:Drivers/STM32L4xx_HAL_Driver/Src/stm32l4xx_hal_dac.c ****   *         the configuration information for the specified DAC.
1287:Drivers/STM32L4xx_HAL_Driver/Src/stm32l4xx_hal_dac.c ****   * @retval HAL state
1288:Drivers/STM32L4xx_HAL_Driver/Src/stm32l4xx_hal_dac.c ****   */
1289:Drivers/STM32L4xx_HAL_Driver/Src/stm32l4xx_hal_dac.c **** HAL_DAC_StateTypeDef HAL_DAC_GetState(DAC_HandleTypeDef* hdac)
1290:Drivers/STM32L4xx_HAL_Driver/Src/stm32l4xx_hal_dac.c **** {
1291:Drivers/STM32L4xx_HAL_Driver/Src/stm32l4xx_hal_dac.c ****   /* Return DAC handle state */
1292:Drivers/STM32L4xx_HAL_Driver/Src/stm32l4xx_hal_dac.c ****   return hdac->State;
1293:Drivers/STM32L4xx_HAL_Driver/Src/stm32l4xx_hal_dac.c **** }
1294:Drivers/STM32L4xx_HAL_Driver/Src/stm32l4xx_hal_dac.c **** 
1295:Drivers/STM32L4xx_HAL_Driver/Src/stm32l4xx_hal_dac.c **** 
1296:Drivers/STM32L4xx_HAL_Driver/Src/stm32l4xx_hal_dac.c **** /**
1297:Drivers/STM32L4xx_HAL_Driver/Src/stm32l4xx_hal_dac.c ****   * @brief  Return the DAC error code
1298:Drivers/STM32L4xx_HAL_Driver/Src/stm32l4xx_hal_dac.c ****   * @param  hdac: pointer to a DAC_HandleTypeDef structure that contains
1299:Drivers/STM32L4xx_HAL_Driver/Src/stm32l4xx_hal_dac.c ****   *         the configuration information for the specified DAC.
1300:Drivers/STM32L4xx_HAL_Driver/Src/stm32l4xx_hal_dac.c ****   * @retval DAC Error Code
1301:Drivers/STM32L4xx_HAL_Driver/Src/stm32l4xx_hal_dac.c ****   */
1302:Drivers/STM32L4xx_HAL_Driver/Src/stm32l4xx_hal_dac.c **** uint32_t HAL_DAC_GetError(DAC_HandleTypeDef *hdac)
1303:Drivers/STM32L4xx_HAL_Driver/Src/stm32l4xx_hal_dac.c **** {
1304:Drivers/STM32L4xx_HAL_Driver/Src/stm32l4xx_hal_dac.c ****   return hdac->ErrorCode;
1305:Drivers/STM32L4xx_HAL_Driver/Src/stm32l4xx_hal_dac.c **** }
1306:Drivers/STM32L4xx_HAL_Driver/Src/stm32l4xx_hal_dac.c **** 
1307:Drivers/STM32L4xx_HAL_Driver/Src/stm32l4xx_hal_dac.c **** /**
1308:Drivers/STM32L4xx_HAL_Driver/Src/stm32l4xx_hal_dac.c ****   * @}
1309:Drivers/STM32L4xx_HAL_Driver/Src/stm32l4xx_hal_dac.c ****   */
1310:Drivers/STM32L4xx_HAL_Driver/Src/stm32l4xx_hal_dac.c **** 
1311:Drivers/STM32L4xx_HAL_Driver/Src/stm32l4xx_hal_dac.c **** /**
1312:Drivers/STM32L4xx_HAL_Driver/Src/stm32l4xx_hal_dac.c ****   * @}
1313:Drivers/STM32L4xx_HAL_Driver/Src/stm32l4xx_hal_dac.c ****   */
1314:Drivers/STM32L4xx_HAL_Driver/Src/stm32l4xx_hal_dac.c **** 
1315:Drivers/STM32L4xx_HAL_Driver/Src/stm32l4xx_hal_dac.c **** /** @addtogroup DAC_Private_Functions
1316:Drivers/STM32L4xx_HAL_Driver/Src/stm32l4xx_hal_dac.c ****   * @{
1317:Drivers/STM32L4xx_HAL_Driver/Src/stm32l4xx_hal_dac.c ****   */
1318:Drivers/STM32L4xx_HAL_Driver/Src/stm32l4xx_hal_dac.c **** 
1319:Drivers/STM32L4xx_HAL_Driver/Src/stm32l4xx_hal_dac.c **** /**
1320:Drivers/STM32L4xx_HAL_Driver/Src/stm32l4xx_hal_dac.c ****   * @brief  DMA conversion complete callback. 
1321:Drivers/STM32L4xx_HAL_Driver/Src/stm32l4xx_hal_dac.c ****   * @param  hdma: pointer to a DMA_HandleTypeDef structure that contains
1322:Drivers/STM32L4xx_HAL_Driver/Src/stm32l4xx_hal_dac.c ****   *                the configuration information for the specified DMA module.
1323:Drivers/STM32L4xx_HAL_Driver/Src/stm32l4xx_hal_dac.c ****   * @retval None
1324:Drivers/STM32L4xx_HAL_Driver/Src/stm32l4xx_hal_dac.c ****   */
1325:Drivers/STM32L4xx_HAL_Driver/Src/stm32l4xx_hal_dac.c **** static void DAC_DMAConvCpltCh1(DMA_HandleTypeDef *hdma)   
1326:Drivers/STM32L4xx_HAL_Driver/Src/stm32l4xx_hal_dac.c **** {
 693              		.loc 1 1326 0
 694              		.cfi_startproc
 695              		@ args = 0, pretend = 0, frame = 0
ARM GAS  /tmp/ccNW8x26.s 			page 37


 696              		@ frame_needed = 0, uses_anonymous_args = 0
 697              	.LVL61:
 698              		.loc 1 1326 0
 699 0000 10B5     		push	{r4, lr}
 700              	.LCFI17:
 701              		.cfi_def_cfa_offset 8
 702              		.cfi_offset 4, -8
 703              		.cfi_offset 14, -4
1327:Drivers/STM32L4xx_HAL_Driver/Src/stm32l4xx_hal_dac.c ****   DAC_HandleTypeDef* hdac = ( DAC_HandleTypeDef* )((DMA_HandleTypeDef* )hdma)->Parent;
 704              		.loc 1 1327 0
 705 0002 846A     		ldr	r4, [r0, #40]
 706              	.LVL62:
1328:Drivers/STM32L4xx_HAL_Driver/Src/stm32l4xx_hal_dac.c ****   
1329:Drivers/STM32L4xx_HAL_Driver/Src/stm32l4xx_hal_dac.c ****   HAL_DAC_ConvCpltCallbackCh1(hdac); 
 707              		.loc 1 1329 0
 708 0004 2046     		mov	r0, r4
 709              	.LVL63:
 710 0006 FFF7FEFF 		bl	HAL_DAC_ConvCpltCallbackCh1
 711              	.LVL64:
1330:Drivers/STM32L4xx_HAL_Driver/Src/stm32l4xx_hal_dac.c ****   
1331:Drivers/STM32L4xx_HAL_Driver/Src/stm32l4xx_hal_dac.c ****   hdac->State= HAL_DAC_STATE_READY;
 712              		.loc 1 1331 0
 713 000a 0123     		movs	r3, #1
 714 000c 2371     		strb	r3, [r4, #4]
 715 000e 10BD     		pop	{r4, pc}
 716              		.cfi_endproc
 717              	.LFE327:
 719              		.section	.text.HAL_DAC_ConvHalfCpltCallbackCh1,"ax",%progbits
 720              		.align	1
 721              		.weak	HAL_DAC_ConvHalfCpltCallbackCh1
 722              		.syntax unified
 723              		.thumb
 724              		.thumb_func
 725              		.fpu fpv4-sp-d16
 727              	HAL_DAC_ConvHalfCpltCallbackCh1:
 728              	.LFB320:
 979:Drivers/STM32L4xx_HAL_Driver/Src/stm32l4xx_hal_dac.c ****   /* Prevent unused argument(s) compilation warning */
 729              		.loc 1 979 0
 730              		.cfi_startproc
 731              		@ args = 0, pretend = 0, frame = 0
 732              		@ frame_needed = 0, uses_anonymous_args = 0
 733              		@ link register save eliminated.
 734              	.LVL65:
 735 0000 7047     		bx	lr
 736              		.cfi_endproc
 737              	.LFE320:
 739              		.section	.text.DAC_DMAHalfConvCpltCh1,"ax",%progbits
 740              		.align	1
 741              		.syntax unified
 742              		.thumb
 743              		.thumb_func
 744              		.fpu fpv4-sp-d16
 746              	DAC_DMAHalfConvCpltCh1:
 747              	.LFB328:
1332:Drivers/STM32L4xx_HAL_Driver/Src/stm32l4xx_hal_dac.c **** }
1333:Drivers/STM32L4xx_HAL_Driver/Src/stm32l4xx_hal_dac.c **** 
1334:Drivers/STM32L4xx_HAL_Driver/Src/stm32l4xx_hal_dac.c **** /**
ARM GAS  /tmp/ccNW8x26.s 			page 38


1335:Drivers/STM32L4xx_HAL_Driver/Src/stm32l4xx_hal_dac.c ****   * @brief  DMA half transfer complete callback. 
1336:Drivers/STM32L4xx_HAL_Driver/Src/stm32l4xx_hal_dac.c ****   * @param  hdma: pointer to a DMA_HandleTypeDef structure that contains
1337:Drivers/STM32L4xx_HAL_Driver/Src/stm32l4xx_hal_dac.c ****   *                the configuration information for the specified DMA module.
1338:Drivers/STM32L4xx_HAL_Driver/Src/stm32l4xx_hal_dac.c ****   * @retval None
1339:Drivers/STM32L4xx_HAL_Driver/Src/stm32l4xx_hal_dac.c ****   */
1340:Drivers/STM32L4xx_HAL_Driver/Src/stm32l4xx_hal_dac.c **** static void DAC_DMAHalfConvCpltCh1(DMA_HandleTypeDef *hdma)   
1341:Drivers/STM32L4xx_HAL_Driver/Src/stm32l4xx_hal_dac.c **** {
 748              		.loc 1 1341 0
 749              		.cfi_startproc
 750              		@ args = 0, pretend = 0, frame = 0
 751              		@ frame_needed = 0, uses_anonymous_args = 0
 752              	.LVL66:
 753              		.loc 1 1341 0
 754 0000 08B5     		push	{r3, lr}
 755              	.LCFI18:
 756              		.cfi_def_cfa_offset 8
 757              		.cfi_offset 3, -8
 758              		.cfi_offset 14, -4
 759              	.LVL67:
1342:Drivers/STM32L4xx_HAL_Driver/Src/stm32l4xx_hal_dac.c ****     DAC_HandleTypeDef* hdac = ( DAC_HandleTypeDef* )((DMA_HandleTypeDef* )hdma)->Parent;
1343:Drivers/STM32L4xx_HAL_Driver/Src/stm32l4xx_hal_dac.c ****     /* Conversion complete callback */
1344:Drivers/STM32L4xx_HAL_Driver/Src/stm32l4xx_hal_dac.c ****     HAL_DAC_ConvHalfCpltCallbackCh1(hdac); 
 760              		.loc 1 1344 0
 761 0002 806A     		ldr	r0, [r0, #40]
 762              	.LVL68:
 763 0004 FFF7FEFF 		bl	HAL_DAC_ConvHalfCpltCallbackCh1
 764              	.LVL69:
 765 0008 08BD     		pop	{r3, pc}
 766              		.cfi_endproc
 767              	.LFE328:
 769              		.section	.text.HAL_DAC_ErrorCallbackCh1,"ax",%progbits
 770              		.align	1
 771              		.weak	HAL_DAC_ErrorCallbackCh1
 772              		.syntax unified
 773              		.thumb
 774              		.thumb_func
 775              		.fpu fpv4-sp-d16
 777              	HAL_DAC_ErrorCallbackCh1:
 778              	.LFB321:
 995:Drivers/STM32L4xx_HAL_Driver/Src/stm32l4xx_hal_dac.c ****   /* Prevent unused argument(s) compilation warning */
 779              		.loc 1 995 0
 780              		.cfi_startproc
 781              		@ args = 0, pretend = 0, frame = 0
 782              		@ frame_needed = 0, uses_anonymous_args = 0
 783              		@ link register save eliminated.
 784              	.LVL70:
 785 0000 7047     		bx	lr
 786              		.cfi_endproc
 787              	.LFE321:
 789              		.section	.text.DAC_DMAErrorCh1,"ax",%progbits
 790              		.align	1
 791              		.syntax unified
 792              		.thumb
 793              		.thumb_func
 794              		.fpu fpv4-sp-d16
 796              	DAC_DMAErrorCh1:
 797              	.LFB329:
ARM GAS  /tmp/ccNW8x26.s 			page 39


1345:Drivers/STM32L4xx_HAL_Driver/Src/stm32l4xx_hal_dac.c **** }
1346:Drivers/STM32L4xx_HAL_Driver/Src/stm32l4xx_hal_dac.c **** 
1347:Drivers/STM32L4xx_HAL_Driver/Src/stm32l4xx_hal_dac.c **** /**
1348:Drivers/STM32L4xx_HAL_Driver/Src/stm32l4xx_hal_dac.c ****   * @brief  DMA error callback 
1349:Drivers/STM32L4xx_HAL_Driver/Src/stm32l4xx_hal_dac.c ****   * @param  hdma: pointer to a DMA_HandleTypeDef structure that contains
1350:Drivers/STM32L4xx_HAL_Driver/Src/stm32l4xx_hal_dac.c ****   *                the configuration information for the specified DMA module.
1351:Drivers/STM32L4xx_HAL_Driver/Src/stm32l4xx_hal_dac.c ****   * @retval None
1352:Drivers/STM32L4xx_HAL_Driver/Src/stm32l4xx_hal_dac.c ****   */
1353:Drivers/STM32L4xx_HAL_Driver/Src/stm32l4xx_hal_dac.c **** static void DAC_DMAErrorCh1(DMA_HandleTypeDef *hdma)   
1354:Drivers/STM32L4xx_HAL_Driver/Src/stm32l4xx_hal_dac.c **** {
 798              		.loc 1 1354 0
 799              		.cfi_startproc
 800              		@ args = 0, pretend = 0, frame = 0
 801              		@ frame_needed = 0, uses_anonymous_args = 0
 802              	.LVL71:
 803              		.loc 1 1354 0
 804 0000 10B5     		push	{r4, lr}
 805              	.LCFI19:
 806              		.cfi_def_cfa_offset 8
 807              		.cfi_offset 4, -8
 808              		.cfi_offset 14, -4
1355:Drivers/STM32L4xx_HAL_Driver/Src/stm32l4xx_hal_dac.c ****   DAC_HandleTypeDef* hdac = ( DAC_HandleTypeDef* )((DMA_HandleTypeDef* )hdma)->Parent;
 809              		.loc 1 1355 0
 810 0002 846A     		ldr	r4, [r0, #40]
 811              	.LVL72:
1356:Drivers/STM32L4xx_HAL_Driver/Src/stm32l4xx_hal_dac.c ****     
1357:Drivers/STM32L4xx_HAL_Driver/Src/stm32l4xx_hal_dac.c ****   /* Set DAC error code to DMA error */
1358:Drivers/STM32L4xx_HAL_Driver/Src/stm32l4xx_hal_dac.c ****   hdac->ErrorCode |= HAL_DAC_ERROR_DMA;
 812              		.loc 1 1358 0
 813 0004 2369     		ldr	r3, [r4, #16]
 814 0006 43F00403 		orr	r3, r3, #4
 815 000a 2361     		str	r3, [r4, #16]
1359:Drivers/STM32L4xx_HAL_Driver/Src/stm32l4xx_hal_dac.c ****     
1360:Drivers/STM32L4xx_HAL_Driver/Src/stm32l4xx_hal_dac.c ****   HAL_DAC_ErrorCallbackCh1(hdac); 
 816              		.loc 1 1360 0
 817 000c 2046     		mov	r0, r4
 818              	.LVL73:
 819 000e FFF7FEFF 		bl	HAL_DAC_ErrorCallbackCh1
 820              	.LVL74:
1361:Drivers/STM32L4xx_HAL_Driver/Src/stm32l4xx_hal_dac.c ****     
1362:Drivers/STM32L4xx_HAL_Driver/Src/stm32l4xx_hal_dac.c ****   hdac->State= HAL_DAC_STATE_READY;
 821              		.loc 1 1362 0
 822 0012 0123     		movs	r3, #1
 823 0014 2371     		strb	r3, [r4, #4]
 824 0016 10BD     		pop	{r4, pc}
 825              		.cfi_endproc
 826              	.LFE329:
 828              		.section	.text.HAL_DAC_DMAUnderrunCallbackCh1,"ax",%progbits
 829              		.align	1
 830              		.weak	HAL_DAC_DMAUnderrunCallbackCh1
 831              		.syntax unified
 832              		.thumb
 833              		.thumb_func
 834              		.fpu fpv4-sp-d16
 836              	HAL_DAC_DMAUnderrunCallbackCh1:
 837              	.LFB322:
1011:Drivers/STM32L4xx_HAL_Driver/Src/stm32l4xx_hal_dac.c ****   /* Prevent unused argument(s) compilation warning */
ARM GAS  /tmp/ccNW8x26.s 			page 40


 838              		.loc 1 1011 0
 839              		.cfi_startproc
 840              		@ args = 0, pretend = 0, frame = 0
 841              		@ frame_needed = 0, uses_anonymous_args = 0
 842              		@ link register save eliminated.
 843              	.LVL75:
 844 0000 7047     		bx	lr
 845              		.cfi_endproc
 846              	.LFE322:
 848              		.section	.text.HAL_DAC_IRQHandler,"ax",%progbits
 849              		.align	1
 850              		.global	HAL_DAC_IRQHandler
 851              		.syntax unified
 852              		.thumb
 853              		.thumb_func
 854              		.fpu fpv4-sp-d16
 856              	HAL_DAC_IRQHandler:
 857              	.LFB317:
 863:Drivers/STM32L4xx_HAL_Driver/Src/stm32l4xx_hal_dac.c ****   if(__HAL_DAC_GET_IT_SOURCE(hdac, DAC_IT_DMAUDR1))
 858              		.loc 1 863 0
 859              		.cfi_startproc
 860              		@ args = 0, pretend = 0, frame = 0
 861              		@ frame_needed = 0, uses_anonymous_args = 0
 862              	.LVL76:
 863:Drivers/STM32L4xx_HAL_Driver/Src/stm32l4xx_hal_dac.c ****   if(__HAL_DAC_GET_IT_SOURCE(hdac, DAC_IT_DMAUDR1))
 863              		.loc 1 863 0
 864 0000 10B5     		push	{r4, lr}
 865              	.LCFI20:
 866              		.cfi_def_cfa_offset 8
 867              		.cfi_offset 4, -8
 868              		.cfi_offset 14, -4
 869 0002 0446     		mov	r4, r0
 864:Drivers/STM32L4xx_HAL_Driver/Src/stm32l4xx_hal_dac.c ****   { 
 870              		.loc 1 864 0
 871 0004 0368     		ldr	r3, [r0]
 872 0006 1A68     		ldr	r2, [r3]
 873 0008 12F4005F 		tst	r2, #8192
 874 000c 03D0     		beq	.L76
 867:Drivers/STM32L4xx_HAL_Driver/Src/stm32l4xx_hal_dac.c ****     {
 875              		.loc 1 867 0
 876 000e 5A6B     		ldr	r2, [r3, #52]
 877 0010 12F4005F 		tst	r2, #8192
 878 0014 09D1     		bne	.L79
 879              	.LVL77:
 880              	.L76:
 888:Drivers/STM32L4xx_HAL_Driver/Src/stm32l4xx_hal_dac.c ****   {
 881              		.loc 1 888 0
 882 0016 2368     		ldr	r3, [r4]
 883 0018 1A68     		ldr	r2, [r3]
 884 001a 12F0005F 		tst	r2, #536870912
 885 001e 03D0     		beq	.L75
 891:Drivers/STM32L4xx_HAL_Driver/Src/stm32l4xx_hal_dac.c ****     {
 886              		.loc 1 891 0
 887 0020 5A6B     		ldr	r2, [r3, #52]
 888 0022 12F0005F 		tst	r2, #536870912
 889 0026 11D1     		bne	.L80
 890              	.L75:
ARM GAS  /tmp/ccNW8x26.s 			page 41


 891 0028 10BD     		pop	{r4, pc}
 892              	.LVL78:
 893              	.L79:
 870:Drivers/STM32L4xx_HAL_Driver/Src/stm32l4xx_hal_dac.c ****       
 894              		.loc 1 870 0
 895 002a 0422     		movs	r2, #4
 896 002c 0271     		strb	r2, [r0, #4]
 873:Drivers/STM32L4xx_HAL_Driver/Src/stm32l4xx_hal_dac.c ****       
 897              		.loc 1 873 0
 898 002e 0269     		ldr	r2, [r0, #16]
 899 0030 42F00102 		orr	r2, r2, #1
 900 0034 0261     		str	r2, [r0, #16]
 876:Drivers/STM32L4xx_HAL_Driver/Src/stm32l4xx_hal_dac.c ****       
 901              		.loc 1 876 0
 902 0036 4FF40052 		mov	r2, #8192
 903 003a 5A63     		str	r2, [r3, #52]
 879:Drivers/STM32L4xx_HAL_Driver/Src/stm32l4xx_hal_dac.c ****       
 904              		.loc 1 879 0
 905 003c 0268     		ldr	r2, [r0]
 906 003e 1368     		ldr	r3, [r2]
 907 0040 23F48053 		bic	r3, r3, #4096
 908 0044 1360     		str	r3, [r2]
 882:Drivers/STM32L4xx_HAL_Driver/Src/stm32l4xx_hal_dac.c ****     }
 909              		.loc 1 882 0
 910 0046 FFF7FEFF 		bl	HAL_DAC_DMAUnderrunCallbackCh1
 911              	.LVL79:
 912 004a E4E7     		b	.L76
 913              	.L80:
 894:Drivers/STM32L4xx_HAL_Driver/Src/stm32l4xx_hal_dac.c ****       
 914              		.loc 1 894 0
 915 004c 0422     		movs	r2, #4
 916 004e 2271     		strb	r2, [r4, #4]
 897:Drivers/STM32L4xx_HAL_Driver/Src/stm32l4xx_hal_dac.c ****       
 917              		.loc 1 897 0
 918 0050 2269     		ldr	r2, [r4, #16]
 919 0052 42F00202 		orr	r2, r2, #2
 920 0056 2261     		str	r2, [r4, #16]
 900:Drivers/STM32L4xx_HAL_Driver/Src/stm32l4xx_hal_dac.c ****       
 921              		.loc 1 900 0
 922 0058 4FF00052 		mov	r2, #536870912
 923 005c 5A63     		str	r2, [r3, #52]
 903:Drivers/STM32L4xx_HAL_Driver/Src/stm32l4xx_hal_dac.c ****       
 924              		.loc 1 903 0
 925 005e 2268     		ldr	r2, [r4]
 926 0060 1368     		ldr	r3, [r2]
 927 0062 23F08053 		bic	r3, r3, #268435456
 928 0066 1360     		str	r3, [r2]
 906:Drivers/STM32L4xx_HAL_Driver/Src/stm32l4xx_hal_dac.c ****     }
 929              		.loc 1 906 0
 930 0068 2046     		mov	r0, r4
 931 006a FFF7FEFF 		bl	HAL_DACEx_DMAUnderrunCallbackCh2
 932              	.LVL80:
 912:Drivers/STM32L4xx_HAL_Driver/Src/stm32l4xx_hal_dac.c **** 
 933              		.loc 1 912 0
 934 006e DBE7     		b	.L75
 935              		.cfi_endproc
 936              	.LFE317:
ARM GAS  /tmp/ccNW8x26.s 			page 42


 938              		.section	.text.HAL_DAC_GetValue,"ax",%progbits
 939              		.align	1
 940              		.global	HAL_DAC_GetValue
 941              		.syntax unified
 942              		.thumb
 943              		.thumb_func
 944              		.fpu fpv4-sp-d16
 946              	HAL_DAC_GetValue:
 947              	.LFB323:
1050:Drivers/STM32L4xx_HAL_Driver/Src/stm32l4xx_hal_dac.c ****   /* Check the parameters */
 948              		.loc 1 1050 0
 949              		.cfi_startproc
 950              		@ args = 0, pretend = 0, frame = 0
 951              		@ frame_needed = 0, uses_anonymous_args = 0
 952              		@ link register save eliminated.
 953              	.LVL81:
1062:Drivers/STM32L4xx_HAL_Driver/Src/stm32l4xx_hal_dac.c ****   {
 954              		.loc 1 1062 0
 955 0000 11B1     		cbz	r1, .L84
1068:Drivers/STM32L4xx_HAL_Driver/Src/stm32l4xx_hal_dac.c ****   }
 956              		.loc 1 1068 0
 957 0002 0368     		ldr	r3, [r0]
 958 0004 186B     		ldr	r0, [r3, #48]
 959              	.LVL82:
1073:Drivers/STM32L4xx_HAL_Driver/Src/stm32l4xx_hal_dac.c **** 
 960              		.loc 1 1073 0
 961 0006 7047     		bx	lr
 962              	.LVL83:
 963              	.L84:
1064:Drivers/STM32L4xx_HAL_Driver/Src/stm32l4xx_hal_dac.c ****   }
 964              		.loc 1 1064 0
 965 0008 0368     		ldr	r3, [r0]
 966 000a D86A     		ldr	r0, [r3, #44]
 967              	.LVL84:
 968 000c 7047     		bx	lr
 969              		.cfi_endproc
 970              	.LFE323:
 972              		.section	.text.HAL_DAC_ConfigChannel,"ax",%progbits
 973              		.align	1
 974              		.global	HAL_DAC_ConfigChannel
 975              		.syntax unified
 976              		.thumb
 977              		.thumb_func
 978              		.fpu fpv4-sp-d16
 980              	HAL_DAC_ConfigChannel:
 981              	.LFB324:
1087:Drivers/STM32L4xx_HAL_Driver/Src/stm32l4xx_hal_dac.c ****   uint32_t tmpreg1 = 0, tmpreg2 = 0;
 982              		.loc 1 1087 0
 983              		.cfi_startproc
 984              		@ args = 0, pretend = 0, frame = 0
 985              		@ frame_needed = 0, uses_anonymous_args = 0
 986              	.LVL85:
 987 0000 F8B5     		push	{r3, r4, r5, r6, r7, lr}
 988              	.LCFI21:
 989              		.cfi_def_cfa_offset 24
 990              		.cfi_offset 3, -24
 991              		.cfi_offset 4, -20
ARM GAS  /tmp/ccNW8x26.s 			page 43


 992              		.cfi_offset 5, -16
 993              		.cfi_offset 6, -12
 994              		.cfi_offset 7, -8
 995              		.cfi_offset 14, -4
 996              	.LVL86:
1116:Drivers/STM32L4xx_HAL_Driver/Src/stm32l4xx_hal_dac.c ****   
 997              		.loc 1 1116 0
 998 0002 4379     		ldrb	r3, [r0, #5]	@ zero_extendqisi2
 999 0004 012B     		cmp	r3, #1
 1000 0006 00F08D80 		beq	.L94
 1001 000a 1546     		mov	r5, r2
 1002 000c 0E46     		mov	r6, r1
 1003 000e 0446     		mov	r4, r0
1116:Drivers/STM32L4xx_HAL_Driver/Src/stm32l4xx_hal_dac.c ****   
 1004              		.loc 1 1116 0 is_stmt 0 discriminator 2
 1005 0010 0123     		movs	r3, #1
 1006 0012 4371     		strb	r3, [r0, #5]
1119:Drivers/STM32L4xx_HAL_Driver/Src/stm32l4xx_hal_dac.c ****   
 1007              		.loc 1 1119 0 is_stmt 1 discriminator 2
 1008 0014 0223     		movs	r3, #2
 1009 0016 0371     		strb	r3, [r0, #4]
1121:Drivers/STM32L4xx_HAL_Driver/Src/stm32l4xx_hal_dac.c ****   /* Sample on old configuration */ 
 1010              		.loc 1 1121 0 discriminator 2
 1011 0018 0B68     		ldr	r3, [r1]
 1012 001a 042B     		cmp	r3, #4
 1013 001c 30D0     		beq	.L96
 1014              	.LVL87:
 1015              	.L87:
1178:Drivers/STM32L4xx_HAL_Driver/Src/stm32l4xx_hal_dac.c ****   /* USER TRIMMING */
 1016              		.loc 1 1178 0
 1017 001e 3369     		ldr	r3, [r6, #16]
 1018 0020 012B     		cmp	r3, #1
 1019 0022 74D0     		beq	.L97
 1020              	.LVL88:
 1021              	.L93:
1196:Drivers/STM32L4xx_HAL_Driver/Src/stm32l4xx_hal_dac.c ****   /* Clear DAC_MCR_MODE2_0, DAC_MCR_MODE2_1 and DAC_MCR_MODE2_2 bits */
 1022              		.loc 1 1196 0
 1023 0024 2168     		ldr	r1, [r4]
 1024 0026 CB6B     		ldr	r3, [r1, #60]
 1025              	.LVL89:
1198:Drivers/STM32L4xx_HAL_Driver/Src/stm32l4xx_hal_dac.c ****   /* Configure for the selected DAC channel: mode, buffer output & on chip peripheral connect */
 1026              		.loc 1 1198 0
 1027 0028 0722     		movs	r2, #7
 1028 002a AA40     		lsls	r2, r2, r5
 1029 002c 23EA0202 		bic	r2, r3, r2
 1030              	.LVL90:
1200:Drivers/STM32L4xx_HAL_Driver/Src/stm32l4xx_hal_dac.c ****   /* Calculate MCR register value depending on DAC_Channel */
 1031              		.loc 1 1200 0
 1032 0030 3368     		ldr	r3, [r6]
 1033 0032 B068     		ldr	r0, [r6, #8]
 1034 0034 0343     		orrs	r3, r3, r0
 1035 0036 F068     		ldr	r0, [r6, #12]
 1036 0038 0343     		orrs	r3, r3, r0
 1037              	.LVL91:
1202:Drivers/STM32L4xx_HAL_Driver/Src/stm32l4xx_hal_dac.c ****   /* Write to DAC MCR */
 1038              		.loc 1 1202 0
 1039 003a AB40     		lsls	r3, r3, r5
ARM GAS  /tmp/ccNW8x26.s 			page 44


 1040              	.LVL92:
 1041 003c 1343     		orrs	r3, r3, r2
 1042              	.LVL93:
1204:Drivers/STM32L4xx_HAL_Driver/Src/stm32l4xx_hal_dac.c ****   
 1043              		.loc 1 1204 0
 1044 003e CB63     		str	r3, [r1, #60]
 1045              	.LVL94:
1207:Drivers/STM32L4xx_HAL_Driver/Src/stm32l4xx_hal_dac.c ****   
 1046              		.loc 1 1207 0
 1047 0040 2168     		ldr	r1, [r4]
 1048 0042 0B68     		ldr	r3, [r1]
 1049              	.LVL95:
 1050 0044 4FF48042 		mov	r2, #16384
 1051 0048 AA40     		lsls	r2, r2, r5
 1052 004a 23EA0203 		bic	r3, r3, r2
 1053 004e 0B60     		str	r3, [r1]
1210:Drivers/STM32L4xx_HAL_Driver/Src/stm32l4xx_hal_dac.c ****   /* Clear TENx, TSELx, WAVEx and MAMPx bits */
 1054              		.loc 1 1210 0
 1055 0050 2168     		ldr	r1, [r4]
 1056 0052 0B68     		ldr	r3, [r1]
 1057              	.LVL96:
1212:Drivers/STM32L4xx_HAL_Driver/Src/stm32l4xx_hal_dac.c ****   /* Configure for the selected DAC channel: trigger */
 1058              		.loc 1 1212 0
 1059 0054 40F6FC72 		movw	r2, #4092
 1060 0058 AA40     		lsls	r2, r2, r5
 1061 005a 23EA0203 		bic	r3, r3, r2
 1062              	.LVL97:
1215:Drivers/STM32L4xx_HAL_Driver/Src/stm32l4xx_hal_dac.c ****   /* Calculate CR register value depending on DAC_Channel */
 1063              		.loc 1 1215 0
 1064 005e 7268     		ldr	r2, [r6, #4]
 1065              	.LVL98:
1217:Drivers/STM32L4xx_HAL_Driver/Src/stm32l4xx_hal_dac.c **** #if defined (STM32L4R5xx) || defined (STM32L4R7xx) || defined (STM32L4R9xx) || defined (STM32L4S5xx
 1066              		.loc 1 1217 0
 1067 0060 AA40     		lsls	r2, r2, r5
 1068              	.LVL99:
 1069 0062 1343     		orrs	r3, r3, r2
 1070              	.LVL100:
1248:Drivers/STM32L4xx_HAL_Driver/Src/stm32l4xx_hal_dac.c ****       
 1071              		.loc 1 1248 0
 1072 0064 0B60     		str	r3, [r1]
 1073              	.LVL101:
1251:Drivers/STM32L4xx_HAL_Driver/Src/stm32l4xx_hal_dac.c ****   
 1074              		.loc 1 1251 0
 1075 0066 2168     		ldr	r1, [r4]
 1076 0068 0B68     		ldr	r3, [r1]
 1077              	.LVL102:
 1078 006a C022     		movs	r2, #192
 1079 006c 02FA05F5 		lsl	r5, r2, r5
 1080              	.LVL103:
 1081 0070 23EA0505 		bic	r5, r3, r5
 1082 0074 0D60     		str	r5, [r1]
1254:Drivers/STM32L4xx_HAL_Driver/Src/stm32l4xx_hal_dac.c ****   
 1083              		.loc 1 1254 0
 1084 0076 0123     		movs	r3, #1
 1085 0078 2371     		strb	r3, [r4, #4]
1257:Drivers/STM32L4xx_HAL_Driver/Src/stm32l4xx_hal_dac.c ****   
 1086              		.loc 1 1257 0
ARM GAS  /tmp/ccNW8x26.s 			page 45


 1087 007a 0020     		movs	r0, #0
 1088 007c 6071     		strb	r0, [r4, #5]
1260:Drivers/STM32L4xx_HAL_Driver/Src/stm32l4xx_hal_dac.c **** }
 1089              		.loc 1 1260 0
 1090 007e F8BD     		pop	{r3, r4, r5, r6, r7, pc}
 1091              	.LVL104:
 1092              	.L96:
1125:Drivers/STM32L4xx_HAL_Driver/Src/stm32l4xx_hal_dac.c ****     {
 1093              		.loc 1 1125 0
 1094 0080 72B1     		cbz	r2, .L98
 1095              	.LVL105:
 1096              	.L88:
1153:Drivers/STM32L4xx_HAL_Driver/Src/stm32l4xx_hal_dac.c ****       {
 1097              		.loc 1 1153 0
 1098 0082 2368     		ldr	r3, [r4]
 1099 0084 5B6B     		ldr	r3, [r3, #52]
 1100 0086 002B     		cmp	r3, #0
 1101 0088 25DA     		bge	.L99
1156:Drivers/STM32L4xx_HAL_Driver/Src/stm32l4xx_hal_dac.c ****         {
 1102              		.loc 1 1156 0
 1103 008a FFF7FEFF 		bl	HAL_GetTick
 1104              	.LVL106:
 1105 008e 0128     		cmp	r0, #1
 1106 0090 F7D9     		bls	.L88
1159:Drivers/STM32L4xx_HAL_Driver/Src/stm32l4xx_hal_dac.c **** 
 1107              		.loc 1 1159 0
 1108 0092 2369     		ldr	r3, [r4, #16]
 1109 0094 43F00803 		orr	r3, r3, #8
 1110 0098 2361     		str	r3, [r4, #16]
1162:Drivers/STM32L4xx_HAL_Driver/Src/stm32l4xx_hal_dac.c **** 
 1111              		.loc 1 1162 0
 1112 009a 0320     		movs	r0, #3
 1113 009c 2071     		strb	r0, [r4, #4]
1164:Drivers/STM32L4xx_HAL_Driver/Src/stm32l4xx_hal_dac.c ****         }
 1114              		.loc 1 1164 0
 1115 009e F8BD     		pop	{r3, r4, r5, r6, r7, pc}
 1116              	.LVL107:
 1117              	.L98:
1128:Drivers/STM32L4xx_HAL_Driver/Src/stm32l4xx_hal_dac.c ****       
 1118              		.loc 1 1128 0
 1119 00a0 FFF7FEFF 		bl	HAL_GetTick
 1120              	.LVL108:
 1121 00a4 0746     		mov	r7, r0
 1122              	.LVL109:
 1123              	.L89:
1131:Drivers/STM32L4xx_HAL_Driver/Src/stm32l4xx_hal_dac.c ****       {
 1124              		.loc 1 1131 0
 1125 00a6 2368     		ldr	r3, [r4]
 1126 00a8 5B6B     		ldr	r3, [r3, #52]
 1127 00aa 13F4004F 		tst	r3, #32768
 1128 00ae 0BD0     		beq	.L100
1134:Drivers/STM32L4xx_HAL_Driver/Src/stm32l4xx_hal_dac.c ****         {
 1129              		.loc 1 1134 0
 1130 00b0 FFF7FEFF 		bl	HAL_GetTick
 1131              	.LVL110:
 1132 00b4 C01B     		subs	r0, r0, r7
 1133 00b6 0128     		cmp	r0, #1
ARM GAS  /tmp/ccNW8x26.s 			page 46


 1134 00b8 F5D9     		bls	.L89
1137:Drivers/STM32L4xx_HAL_Driver/Src/stm32l4xx_hal_dac.c **** 
 1135              		.loc 1 1137 0
 1136 00ba 2369     		ldr	r3, [r4, #16]
 1137 00bc 43F00803 		orr	r3, r3, #8
 1138 00c0 2361     		str	r3, [r4, #16]
1140:Drivers/STM32L4xx_HAL_Driver/Src/stm32l4xx_hal_dac.c **** 
 1139              		.loc 1 1140 0
 1140 00c2 0320     		movs	r0, #3
 1141 00c4 2071     		strb	r0, [r4, #4]
1142:Drivers/STM32L4xx_HAL_Driver/Src/stm32l4xx_hal_dac.c ****         }
 1142              		.loc 1 1142 0
 1143 00c6 F8BD     		pop	{r3, r4, r5, r6, r7, pc}
 1144              	.LVL111:
 1145              	.L100:
1145:Drivers/STM32L4xx_HAL_Driver/Src/stm32l4xx_hal_dac.c ****       hdac->Instance->SHSR1 = sConfig->DAC_SampleAndHoldConfig.DAC_SampleTime;
 1146              		.loc 1 1145 0
 1147 00c8 0120     		movs	r0, #1
 1148 00ca FFF7FEFF 		bl	HAL_Delay
 1149              	.LVL112:
1146:Drivers/STM32L4xx_HAL_Driver/Src/stm32l4xx_hal_dac.c ****     }
 1150              		.loc 1 1146 0
 1151 00ce 2368     		ldr	r3, [r4]
 1152 00d0 B269     		ldr	r2, [r6, #24]
 1153 00d2 1A64     		str	r2, [r3, #64]
 1154 00d4 05E0     		b	.L91
 1155              	.LVL113:
 1156              	.L99:
1167:Drivers/STM32L4xx_HAL_Driver/Src/stm32l4xx_hal_dac.c ****       hdac->Instance->SHSR2 = sConfig->DAC_SampleAndHoldConfig.DAC_SampleTime;
 1157              		.loc 1 1167 0
 1158 00d6 0120     		movs	r0, #1
 1159 00d8 FFF7FEFF 		bl	HAL_Delay
 1160              	.LVL114:
1168:Drivers/STM32L4xx_HAL_Driver/Src/stm32l4xx_hal_dac.c ****     }
 1161              		.loc 1 1168 0
 1162 00dc 2368     		ldr	r3, [r4]
 1163 00de B269     		ldr	r2, [r6, #24]
 1164 00e0 5A64     		str	r2, [r3, #68]
 1165              	.LVL115:
 1166              	.L91:
1173:Drivers/STM32L4xx_HAL_Driver/Src/stm32l4xx_hal_dac.c ****     /* RefreshTime */
 1167              		.loc 1 1173 0
 1168 00e2 2168     		ldr	r1, [r4]
 1169 00e4 8B6C     		ldr	r3, [r1, #72]
 1170 00e6 40F2FF32 		movw	r2, #1023
 1171 00ea AA40     		lsls	r2, r2, r5
 1172 00ec 23EA0203 		bic	r3, r3, r2
 1173 00f0 F269     		ldr	r2, [r6, #28]
 1174 00f2 AA40     		lsls	r2, r2, r5
 1175 00f4 1343     		orrs	r3, r3, r2
 1176 00f6 8B64     		str	r3, [r1, #72]
1175:Drivers/STM32L4xx_HAL_Driver/Src/stm32l4xx_hal_dac.c ****   }
 1177              		.loc 1 1175 0
 1178 00f8 2168     		ldr	r1, [r4]
 1179 00fa CB6C     		ldr	r3, [r1, #76]
 1180 00fc FF22     		movs	r2, #255
 1181 00fe AA40     		lsls	r2, r2, r5
ARM GAS  /tmp/ccNW8x26.s 			page 47


 1182 0100 23EA0203 		bic	r3, r3, r2
 1183 0104 326A     		ldr	r2, [r6, #32]
 1184 0106 AA40     		lsls	r2, r2, r5
 1185 0108 1343     		orrs	r3, r3, r2
 1186 010a CB64     		str	r3, [r1, #76]
 1187 010c 87E7     		b	.L87
 1188              	.L97:
1182:Drivers/STM32L4xx_HAL_Driver/Src/stm32l4xx_hal_dac.c ****   /* Clear trimming value */
 1189              		.loc 1 1182 0
 1190 010e 2168     		ldr	r1, [r4]
 1191 0110 8B6B     		ldr	r3, [r1, #56]
 1192              	.LVL116:
1184:Drivers/STM32L4xx_HAL_Driver/Src/stm32l4xx_hal_dac.c ****   /* Configure for the selected trimming offset */
 1193              		.loc 1 1184 0
 1194 0112 1F22     		movs	r2, #31
 1195 0114 AA40     		lsls	r2, r2, r5
 1196 0116 23EA0203 		bic	r3, r3, r2
 1197              	.LVL117:
1186:Drivers/STM32L4xx_HAL_Driver/Src/stm32l4xx_hal_dac.c ****   /* Calculate CCR register value depending on DAC_Channel */
 1198              		.loc 1 1186 0
 1199 011a 7269     		ldr	r2, [r6, #20]
 1200              	.LVL118:
1188:Drivers/STM32L4xx_HAL_Driver/Src/stm32l4xx_hal_dac.c ****   /* Write to DAC CCR */
 1201              		.loc 1 1188 0
 1202 011c AA40     		lsls	r2, r2, r5
 1203              	.LVL119:
 1204 011e 1343     		orrs	r3, r3, r2
 1205              	.LVL120:
1190:Drivers/STM32L4xx_HAL_Driver/Src/stm32l4xx_hal_dac.c ****   }
 1206              		.loc 1 1190 0
 1207 0120 8B63     		str	r3, [r1, #56]
 1208              	.LVL121:
 1209 0122 7FE7     		b	.L93
 1210              	.LVL122:
 1211              	.L94:
1116:Drivers/STM32L4xx_HAL_Driver/Src/stm32l4xx_hal_dac.c ****   
 1212              		.loc 1 1116 0
 1213 0124 0220     		movs	r0, #2
 1214              	.LVL123:
1261:Drivers/STM32L4xx_HAL_Driver/Src/stm32l4xx_hal_dac.c **** 
 1215              		.loc 1 1261 0
 1216 0126 F8BD     		pop	{r3, r4, r5, r6, r7, pc}
 1217              		.cfi_endproc
 1218              	.LFE324:
 1220              		.section	.text.HAL_DAC_GetState,"ax",%progbits
 1221              		.align	1
 1222              		.global	HAL_DAC_GetState
 1223              		.syntax unified
 1224              		.thumb
 1225              		.thumb_func
 1226              		.fpu fpv4-sp-d16
 1228              	HAL_DAC_GetState:
 1229              	.LFB325:
1290:Drivers/STM32L4xx_HAL_Driver/Src/stm32l4xx_hal_dac.c ****   /* Return DAC handle state */
 1230              		.loc 1 1290 0
 1231              		.cfi_startproc
 1232              		@ args = 0, pretend = 0, frame = 0
ARM GAS  /tmp/ccNW8x26.s 			page 48


 1233              		@ frame_needed = 0, uses_anonymous_args = 0
 1234              		@ link register save eliminated.
 1235              	.LVL124:
1292:Drivers/STM32L4xx_HAL_Driver/Src/stm32l4xx_hal_dac.c **** }
 1236              		.loc 1 1292 0
 1237 0000 0079     		ldrb	r0, [r0, #4]	@ zero_extendqisi2
 1238              	.LVL125:
1293:Drivers/STM32L4xx_HAL_Driver/Src/stm32l4xx_hal_dac.c **** 
 1239              		.loc 1 1293 0
 1240 0002 7047     		bx	lr
 1241              		.cfi_endproc
 1242              	.LFE325:
 1244              		.section	.text.HAL_DAC_GetError,"ax",%progbits
 1245              		.align	1
 1246              		.global	HAL_DAC_GetError
 1247              		.syntax unified
 1248              		.thumb
 1249              		.thumb_func
 1250              		.fpu fpv4-sp-d16
 1252              	HAL_DAC_GetError:
 1253              	.LFB326:
1303:Drivers/STM32L4xx_HAL_Driver/Src/stm32l4xx_hal_dac.c ****   return hdac->ErrorCode;
 1254              		.loc 1 1303 0
 1255              		.cfi_startproc
 1256              		@ args = 0, pretend = 0, frame = 0
 1257              		@ frame_needed = 0, uses_anonymous_args = 0
 1258              		@ link register save eliminated.
 1259              	.LVL126:
1304:Drivers/STM32L4xx_HAL_Driver/Src/stm32l4xx_hal_dac.c **** }
 1260              		.loc 1 1304 0
 1261 0000 0069     		ldr	r0, [r0, #16]
 1262              	.LVL127:
1305:Drivers/STM32L4xx_HAL_Driver/Src/stm32l4xx_hal_dac.c **** 
 1263              		.loc 1 1305 0
 1264 0002 7047     		bx	lr
 1265              		.cfi_endproc
 1266              	.LFE326:
 1268              		.text
 1269              	.Letext0:
 1270              		.file 2 "/usr/arm-none-eabi/include/machine/_default_types.h"
 1271              		.file 3 "/usr/arm-none-eabi/include/sys/_stdint.h"
 1272              		.file 4 "Drivers/CMSIS/Include/core_cm4.h"
 1273              		.file 5 "Drivers/CMSIS/Device/ST/STM32L4xx/Include/system_stm32l4xx.h"
 1274              		.file 6 "Drivers/CMSIS/Device/ST/STM32L4xx/Include/stm32l476xx.h"
 1275              		.file 7 "/usr/arm-none-eabi/include/sys/lock.h"
 1276              		.file 8 "/usr/arm-none-eabi/include/sys/_types.h"
 1277              		.file 9 "/usr/lib/gcc/arm-none-eabi/6.3.1/include/stddef.h"
 1278              		.file 10 "/usr/arm-none-eabi/include/sys/reent.h"
 1279              		.file 11 "Drivers/CMSIS/Device/ST/STM32L4xx/Include/stm32l4xx.h"
 1280              		.file 12 "Drivers/STM32L4xx_HAL_Driver/Inc/stm32l4xx_hal_def.h"
 1281              		.file 13 "Drivers/STM32L4xx_HAL_Driver/Inc/stm32l4xx_hal_dma.h"
 1282              		.file 14 "Drivers/STM32L4xx_HAL_Driver/Inc/stm32l4xx_hal_dac.h"
 1283              		.file 15 "Drivers/STM32L4xx_HAL_Driver/Inc/stm32l4xx_hal.h"
 1284              		.file 16 "Drivers/STM32L4xx_HAL_Driver/Inc/stm32l4xx_hal_dac_ex.h"
ARM GAS  /tmp/ccNW8x26.s 			page 49

